Archive member included because of file (symbol)

C:\Program Files\dSPACE RCPHIL 2016-A\DS1007\Lib\librtversion.a(RtVersion.o)
                              (--whole-archive)
C:\Program Files\dSPACE RCPHIL 2016-A\DS1007\Lib\librtglobals.a(DsEESPort.o)
                              (--whole-archive)
C:\Program Files\dSPACE RCPHIL 2016-A\DS1007\Lib\libm_fastpow.a(w_pow.o)
                              handTraj.o07 (pow)
C:\Program Files\dSPACE RCPHIL 2016-A\DS1007\Lib\libm_fastpow.a(e_pow.o)
                              C:\Program Files\dSPACE RCPHIL 2016-A\DS1007\Lib\libm_fastpow.a(w_pow.o) (__ieee754_pow)
C:\Program Files\dSPACE RCPHIL 2016-A\DS1007\Lib\libm_fastpow.a(s_scalbn.o)
                              C:\Program Files\dSPACE RCPHIL 2016-A\DS1007\Lib\libm_fastpow.a(e_pow.o) (scalbn)
c:/program files/dspace rcphil 2016-a/compiler/qnx650_463/host/win32/x86/usr/bin/../lib/gcc/powerpc-unknown-nto-qnx6.5.0/4.6.3\libgcc.a(_muldi3.o)
                              (--whole-archive)
c:/program files/dspace rcphil 2016-a/compiler/qnx650_463/host/win32/x86/usr/bin/../lib/gcc/powerpc-unknown-nto-qnx6.5.0/4.6.3\libgcc.a(_negdi2.o)
                              (--whole-archive)
c:/program files/dspace rcphil 2016-a/compiler/qnx650_463/host/win32/x86/usr/bin/../lib/gcc/powerpc-unknown-nto-qnx6.5.0/4.6.3\libgcc.a(_lshrdi3.o)
                              (--whole-archive)
c:/program files/dspace rcphil 2016-a/compiler/qnx650_463/host/win32/x86/usr/bin/../lib/gcc/powerpc-unknown-nto-qnx6.5.0/4.6.3\libgcc.a(_ashldi3.o)
                              (--whole-archive)
c:/program files/dspace rcphil 2016-a/compiler/qnx650_463/host/win32/x86/usr/bin/../lib/gcc/powerpc-unknown-nto-qnx6.5.0/4.6.3\libgcc.a(_ashrdi3.o)
                              (--whole-archive)
c:/program files/dspace rcphil 2016-a/compiler/qnx650_463/host/win32/x86/usr/bin/../lib/gcc/powerpc-unknown-nto-qnx6.5.0/4.6.3\libgcc.a(_cmpdi2.o)
                              (--whole-archive)
c:/program files/dspace rcphil 2016-a/compiler/qnx650_463/host/win32/x86/usr/bin/../lib/gcc/powerpc-unknown-nto-qnx6.5.0/4.6.3\libgcc.a(_ucmpdi2.o)
                              (--whole-archive)
c:/program files/dspace rcphil 2016-a/compiler/qnx650_463/host/win32/x86/usr/bin/../lib/gcc/powerpc-unknown-nto-qnx6.5.0/4.6.3\libgcc.a(_clear_cache.o)
                              (--whole-archive)
c:/program files/dspace rcphil 2016-a/compiler/qnx650_463/host/win32/x86/usr/bin/../lib/gcc/powerpc-unknown-nto-qnx6.5.0/4.6.3\libgcc.a(_enable_execute_stack.o)
                              (--whole-archive)
c:/program files/dspace rcphil 2016-a/compiler/qnx650_463/host/win32/x86/usr/bin/../lib/gcc/powerpc-unknown-nto-qnx6.5.0/4.6.3\libgcc.a(_trampoline.o)
                              (--whole-archive)
c:/program files/dspace rcphil 2016-a/compiler/qnx650_463/host/win32/x86/usr/bin/../lib/gcc/powerpc-unknown-nto-qnx6.5.0/4.6.3\libgcc.a(__main.o)
                              (--whole-archive)
c:/program files/dspace rcphil 2016-a/compiler/qnx650_463/host/win32/x86/usr/bin/../lib/gcc/powerpc-unknown-nto-qnx6.5.0/4.6.3\libgcc.a(_absvsi2.o)
                              (--whole-archive)
c:/program files/dspace rcphil 2016-a/compiler/qnx650_463/host/win32/x86/usr/bin/../lib/gcc/powerpc-unknown-nto-qnx6.5.0/4.6.3\libgcc.a(_absvdi2.o)
                              (--whole-archive)
c:/program files/dspace rcphil 2016-a/compiler/qnx650_463/host/win32/x86/usr/bin/../lib/gcc/powerpc-unknown-nto-qnx6.5.0/4.6.3\libgcc.a(_addvsi3.o)
                              (--whole-archive)
c:/program files/dspace rcphil 2016-a/compiler/qnx650_463/host/win32/x86/usr/bin/../lib/gcc/powerpc-unknown-nto-qnx6.5.0/4.6.3\libgcc.a(_addvdi3.o)
                              (--whole-archive)
c:/program files/dspace rcphil 2016-a/compiler/qnx650_463/host/win32/x86/usr/bin/../lib/gcc/powerpc-unknown-nto-qnx6.5.0/4.6.3\libgcc.a(_subvsi3.o)
                              (--whole-archive)
c:/program files/dspace rcphil 2016-a/compiler/qnx650_463/host/win32/x86/usr/bin/../lib/gcc/powerpc-unknown-nto-qnx6.5.0/4.6.3\libgcc.a(_subvdi3.o)
                              (--whole-archive)
c:/program files/dspace rcphil 2016-a/compiler/qnx650_463/host/win32/x86/usr/bin/../lib/gcc/powerpc-unknown-nto-qnx6.5.0/4.6.3\libgcc.a(_mulvsi3.o)
                              (--whole-archive)
c:/program files/dspace rcphil 2016-a/compiler/qnx650_463/host/win32/x86/usr/bin/../lib/gcc/powerpc-unknown-nto-qnx6.5.0/4.6.3\libgcc.a(_mulvdi3.o)
                              (--whole-archive)
c:/program files/dspace rcphil 2016-a/compiler/qnx650_463/host/win32/x86/usr/bin/../lib/gcc/powerpc-unknown-nto-qnx6.5.0/4.6.3\libgcc.a(_negvsi2.o)
                              (--whole-archive)
c:/program files/dspace rcphil 2016-a/compiler/qnx650_463/host/win32/x86/usr/bin/../lib/gcc/powerpc-unknown-nto-qnx6.5.0/4.6.3\libgcc.a(_negvdi2.o)
                              (--whole-archive)
c:/program files/dspace rcphil 2016-a/compiler/qnx650_463/host/win32/x86/usr/bin/../lib/gcc/powerpc-unknown-nto-qnx6.5.0/4.6.3\libgcc.a(_ctors.o)
                              (--whole-archive)
c:/program files/dspace rcphil 2016-a/compiler/qnx650_463/host/win32/x86/usr/bin/../lib/gcc/powerpc-unknown-nto-qnx6.5.0/4.6.3\libgcc.a(_ffssi2.o)
                              (--whole-archive)
c:/program files/dspace rcphil 2016-a/compiler/qnx650_463/host/win32/x86/usr/bin/../lib/gcc/powerpc-unknown-nto-qnx6.5.0/4.6.3\libgcc.a(_ffsdi2.o)
                              (--whole-archive)
c:/program files/dspace rcphil 2016-a/compiler/qnx650_463/host/win32/x86/usr/bin/../lib/gcc/powerpc-unknown-nto-qnx6.5.0/4.6.3\libgcc.a(_clz.o)
                              (--whole-archive)
c:/program files/dspace rcphil 2016-a/compiler/qnx650_463/host/win32/x86/usr/bin/../lib/gcc/powerpc-unknown-nto-qnx6.5.0/4.6.3\libgcc.a(_clzsi2.o)
                              (--whole-archive)
c:/program files/dspace rcphil 2016-a/compiler/qnx650_463/host/win32/x86/usr/bin/../lib/gcc/powerpc-unknown-nto-qnx6.5.0/4.6.3\libgcc.a(_clzdi2.o)
                              (--whole-archive)
c:/program files/dspace rcphil 2016-a/compiler/qnx650_463/host/win32/x86/usr/bin/../lib/gcc/powerpc-unknown-nto-qnx6.5.0/4.6.3\libgcc.a(_ctzsi2.o)
                              (--whole-archive)
c:/program files/dspace rcphil 2016-a/compiler/qnx650_463/host/win32/x86/usr/bin/../lib/gcc/powerpc-unknown-nto-qnx6.5.0/4.6.3\libgcc.a(_ctzdi2.o)
                              (--whole-archive)
c:/program files/dspace rcphil 2016-a/compiler/qnx650_463/host/win32/x86/usr/bin/../lib/gcc/powerpc-unknown-nto-qnx6.5.0/4.6.3\libgcc.a(_popcount_tab.o)
                              (--whole-archive)
c:/program files/dspace rcphil 2016-a/compiler/qnx650_463/host/win32/x86/usr/bin/../lib/gcc/powerpc-unknown-nto-qnx6.5.0/4.6.3\libgcc.a(_popcountsi2.o)
                              (--whole-archive)
c:/program files/dspace rcphil 2016-a/compiler/qnx650_463/host/win32/x86/usr/bin/../lib/gcc/powerpc-unknown-nto-qnx6.5.0/4.6.3\libgcc.a(_popcountdi2.o)
                              (--whole-archive)
c:/program files/dspace rcphil 2016-a/compiler/qnx650_463/host/win32/x86/usr/bin/../lib/gcc/powerpc-unknown-nto-qnx6.5.0/4.6.3\libgcc.a(_paritysi2.o)
                              (--whole-archive)
c:/program files/dspace rcphil 2016-a/compiler/qnx650_463/host/win32/x86/usr/bin/../lib/gcc/powerpc-unknown-nto-qnx6.5.0/4.6.3\libgcc.a(_paritydi2.o)
                              (--whole-archive)
c:/program files/dspace rcphil 2016-a/compiler/qnx650_463/host/win32/x86/usr/bin/../lib/gcc/powerpc-unknown-nto-qnx6.5.0/4.6.3\libgcc.a(_powisf2.o)
                              (--whole-archive)
c:/program files/dspace rcphil 2016-a/compiler/qnx650_463/host/win32/x86/usr/bin/../lib/gcc/powerpc-unknown-nto-qnx6.5.0/4.6.3\libgcc.a(_powidf2.o)
                              (--whole-archive)
c:/program files/dspace rcphil 2016-a/compiler/qnx650_463/host/win32/x86/usr/bin/../lib/gcc/powerpc-unknown-nto-qnx6.5.0/4.6.3\libgcc.a(_powixf2.o)
                              (--whole-archive)
c:/program files/dspace rcphil 2016-a/compiler/qnx650_463/host/win32/x86/usr/bin/../lib/gcc/powerpc-unknown-nto-qnx6.5.0/4.6.3\libgcc.a(_powitf2.o)
                              (--whole-archive)
c:/program files/dspace rcphil 2016-a/compiler/qnx650_463/host/win32/x86/usr/bin/../lib/gcc/powerpc-unknown-nto-qnx6.5.0/4.6.3\libgcc.a(_mulsc3.o)
                              (--whole-archive)
c:/program files/dspace rcphil 2016-a/compiler/qnx650_463/host/win32/x86/usr/bin/../lib/gcc/powerpc-unknown-nto-qnx6.5.0/4.6.3\libgcc.a(_muldc3.o)
                              (--whole-archive)
c:/program files/dspace rcphil 2016-a/compiler/qnx650_463/host/win32/x86/usr/bin/../lib/gcc/powerpc-unknown-nto-qnx6.5.0/4.6.3\libgcc.a(_mulxc3.o)
                              (--whole-archive)
c:/program files/dspace rcphil 2016-a/compiler/qnx650_463/host/win32/x86/usr/bin/../lib/gcc/powerpc-unknown-nto-qnx6.5.0/4.6.3\libgcc.a(_multc3.o)
                              (--whole-archive)
c:/program files/dspace rcphil 2016-a/compiler/qnx650_463/host/win32/x86/usr/bin/../lib/gcc/powerpc-unknown-nto-qnx6.5.0/4.6.3\libgcc.a(_divsc3.o)
                              (--whole-archive)
c:/program files/dspace rcphil 2016-a/compiler/qnx650_463/host/win32/x86/usr/bin/../lib/gcc/powerpc-unknown-nto-qnx6.5.0/4.6.3\libgcc.a(_divdc3.o)
                              (--whole-archive)
c:/program files/dspace rcphil 2016-a/compiler/qnx650_463/host/win32/x86/usr/bin/../lib/gcc/powerpc-unknown-nto-qnx6.5.0/4.6.3\libgcc.a(_divxc3.o)
                              (--whole-archive)
c:/program files/dspace rcphil 2016-a/compiler/qnx650_463/host/win32/x86/usr/bin/../lib/gcc/powerpc-unknown-nto-qnx6.5.0/4.6.3\libgcc.a(_divtc3.o)
                              (--whole-archive)
c:/program files/dspace rcphil 2016-a/compiler/qnx650_463/host/win32/x86/usr/bin/../lib/gcc/powerpc-unknown-nto-qnx6.5.0/4.6.3\libgcc.a(_bswapsi2.o)
                              (--whole-archive)
c:/program files/dspace rcphil 2016-a/compiler/qnx650_463/host/win32/x86/usr/bin/../lib/gcc/powerpc-unknown-nto-qnx6.5.0/4.6.3\libgcc.a(_bswapdi2.o)
                              (--whole-archive)
c:/program files/dspace rcphil 2016-a/compiler/qnx650_463/host/win32/x86/usr/bin/../lib/gcc/powerpc-unknown-nto-qnx6.5.0/4.6.3\libgcc.a(_fixunssfsi.o)
                              (--whole-archive)
c:/program files/dspace rcphil 2016-a/compiler/qnx650_463/host/win32/x86/usr/bin/../lib/gcc/powerpc-unknown-nto-qnx6.5.0/4.6.3\libgcc.a(_fixunsdfsi.o)
                              (--whole-archive)
c:/program files/dspace rcphil 2016-a/compiler/qnx650_463/host/win32/x86/usr/bin/../lib/gcc/powerpc-unknown-nto-qnx6.5.0/4.6.3\libgcc.a(_fixunsxfsi.o)
                              (--whole-archive)
c:/program files/dspace rcphil 2016-a/compiler/qnx650_463/host/win32/x86/usr/bin/../lib/gcc/powerpc-unknown-nto-qnx6.5.0/4.6.3\libgcc.a(_fixsfdi.o)
                              (--whole-archive)
c:/program files/dspace rcphil 2016-a/compiler/qnx650_463/host/win32/x86/usr/bin/../lib/gcc/powerpc-unknown-nto-qnx6.5.0/4.6.3\libgcc.a(_fixdfdi.o)
                              (--whole-archive)
c:/program files/dspace rcphil 2016-a/compiler/qnx650_463/host/win32/x86/usr/bin/../lib/gcc/powerpc-unknown-nto-qnx6.5.0/4.6.3\libgcc.a(_fixxfdi.o)
                              (--whole-archive)
c:/program files/dspace rcphil 2016-a/compiler/qnx650_463/host/win32/x86/usr/bin/../lib/gcc/powerpc-unknown-nto-qnx6.5.0/4.6.3\libgcc.a(_fixtfdi.o)
                              (--whole-archive)
c:/program files/dspace rcphil 2016-a/compiler/qnx650_463/host/win32/x86/usr/bin/../lib/gcc/powerpc-unknown-nto-qnx6.5.0/4.6.3\libgcc.a(_fixunssfdi.o)
                              (--whole-archive)
c:/program files/dspace rcphil 2016-a/compiler/qnx650_463/host/win32/x86/usr/bin/../lib/gcc/powerpc-unknown-nto-qnx6.5.0/4.6.3\libgcc.a(_fixunsdfdi.o)
                              (--whole-archive)
c:/program files/dspace rcphil 2016-a/compiler/qnx650_463/host/win32/x86/usr/bin/../lib/gcc/powerpc-unknown-nto-qnx6.5.0/4.6.3\libgcc.a(_fixunsxfdi.o)
                              (--whole-archive)
c:/program files/dspace rcphil 2016-a/compiler/qnx650_463/host/win32/x86/usr/bin/../lib/gcc/powerpc-unknown-nto-qnx6.5.0/4.6.3\libgcc.a(_fixunstfdi.o)
                              (--whole-archive)
c:/program files/dspace rcphil 2016-a/compiler/qnx650_463/host/win32/x86/usr/bin/../lib/gcc/powerpc-unknown-nto-qnx6.5.0/4.6.3\libgcc.a(_floatdisf.o)
                              (--whole-archive)
c:/program files/dspace rcphil 2016-a/compiler/qnx650_463/host/win32/x86/usr/bin/../lib/gcc/powerpc-unknown-nto-qnx6.5.0/4.6.3\libgcc.a(_floatdidf.o)
                              (--whole-archive)
c:/program files/dspace rcphil 2016-a/compiler/qnx650_463/host/win32/x86/usr/bin/../lib/gcc/powerpc-unknown-nto-qnx6.5.0/4.6.3\libgcc.a(_floatdixf.o)
                              (--whole-archive)
c:/program files/dspace rcphil 2016-a/compiler/qnx650_463/host/win32/x86/usr/bin/../lib/gcc/powerpc-unknown-nto-qnx6.5.0/4.6.3\libgcc.a(_floatditf.o)
                              (--whole-archive)
c:/program files/dspace rcphil 2016-a/compiler/qnx650_463/host/win32/x86/usr/bin/../lib/gcc/powerpc-unknown-nto-qnx6.5.0/4.6.3\libgcc.a(_floatundisf.o)
                              (--whole-archive)
c:/program files/dspace rcphil 2016-a/compiler/qnx650_463/host/win32/x86/usr/bin/../lib/gcc/powerpc-unknown-nto-qnx6.5.0/4.6.3\libgcc.a(_floatundidf.o)
                              (--whole-archive)
c:/program files/dspace rcphil 2016-a/compiler/qnx650_463/host/win32/x86/usr/bin/../lib/gcc/powerpc-unknown-nto-qnx6.5.0/4.6.3\libgcc.a(_floatundixf.o)
                              (--whole-archive)
c:/program files/dspace rcphil 2016-a/compiler/qnx650_463/host/win32/x86/usr/bin/../lib/gcc/powerpc-unknown-nto-qnx6.5.0/4.6.3\libgcc.a(_floatunditf.o)
                              (--whole-archive)
c:/program files/dspace rcphil 2016-a/compiler/qnx650_463/host/win32/x86/usr/bin/../lib/gcc/powerpc-unknown-nto-qnx6.5.0/4.6.3\libgcc.a(_eprintf.o)
                              (--whole-archive)
c:/program files/dspace rcphil 2016-a/compiler/qnx650_463/host/win32/x86/usr/bin/../lib/gcc/powerpc-unknown-nto-qnx6.5.0/4.6.3\libgcc.a(__gcc_bcmp.o)
                              (--whole-archive)
c:/program files/dspace rcphil 2016-a/compiler/qnx650_463/host/win32/x86/usr/bin/../lib/gcc/powerpc-unknown-nto-qnx6.5.0/4.6.3\libgcc.a(_divdi3.o)
                              (--whole-archive)
c:/program files/dspace rcphil 2016-a/compiler/qnx650_463/host/win32/x86/usr/bin/../lib/gcc/powerpc-unknown-nto-qnx6.5.0/4.6.3\libgcc.a(_moddi3.o)
                              (--whole-archive)
c:/program files/dspace rcphil 2016-a/compiler/qnx650_463/host/win32/x86/usr/bin/../lib/gcc/powerpc-unknown-nto-qnx6.5.0/4.6.3\libgcc.a(_udivdi3.o)
                              (--whole-archive)
c:/program files/dspace rcphil 2016-a/compiler/qnx650_463/host/win32/x86/usr/bin/../lib/gcc/powerpc-unknown-nto-qnx6.5.0/4.6.3\libgcc.a(_umoddi3.o)
                              (--whole-archive)
c:/program files/dspace rcphil 2016-a/compiler/qnx650_463/host/win32/x86/usr/bin/../lib/gcc/powerpc-unknown-nto-qnx6.5.0/4.6.3\libgcc.a(_udiv_w_sdiv.o)
                              (--whole-archive)
c:/program files/dspace rcphil 2016-a/compiler/qnx650_463/host/win32/x86/usr/bin/../lib/gcc/powerpc-unknown-nto-qnx6.5.0/4.6.3\libgcc.a(_udivmoddi4.o)
                              (--whole-archive)
c:/program files/dspace rcphil 2016-a/compiler/qnx650_463/host/win32/x86/usr/bin/../lib/gcc/powerpc-unknown-nto-qnx6.5.0/4.6.3\libgcc.a(_pack_sf.o)
                              (--whole-archive)
c:/program files/dspace rcphil 2016-a/compiler/qnx650_463/host/win32/x86/usr/bin/../lib/gcc/powerpc-unknown-nto-qnx6.5.0/4.6.3\libgcc.a(_unpack_sf.o)
                              (--whole-archive)
c:/program files/dspace rcphil 2016-a/compiler/qnx650_463/host/win32/x86/usr/bin/../lib/gcc/powerpc-unknown-nto-qnx6.5.0/4.6.3\libgcc.a(_addsub_sf.o)
                              (--whole-archive)
c:/program files/dspace rcphil 2016-a/compiler/qnx650_463/host/win32/x86/usr/bin/../lib/gcc/powerpc-unknown-nto-qnx6.5.0/4.6.3\libgcc.a(_mul_sf.o)
                              (--whole-archive)
c:/program files/dspace rcphil 2016-a/compiler/qnx650_463/host/win32/x86/usr/bin/../lib/gcc/powerpc-unknown-nto-qnx6.5.0/4.6.3\libgcc.a(_div_sf.o)
                              (--whole-archive)
c:/program files/dspace rcphil 2016-a/compiler/qnx650_463/host/win32/x86/usr/bin/../lib/gcc/powerpc-unknown-nto-qnx6.5.0/4.6.3\libgcc.a(_fpcmp_parts_sf.o)
                              (--whole-archive)
c:/program files/dspace rcphil 2016-a/compiler/qnx650_463/host/win32/x86/usr/bin/../lib/gcc/powerpc-unknown-nto-qnx6.5.0/4.6.3\libgcc.a(_compare_sf.o)
                              (--whole-archive)
c:/program files/dspace rcphil 2016-a/compiler/qnx650_463/host/win32/x86/usr/bin/../lib/gcc/powerpc-unknown-nto-qnx6.5.0/4.6.3\libgcc.a(_eq_sf.o)
                              (--whole-archive)
c:/program files/dspace rcphil 2016-a/compiler/qnx650_463/host/win32/x86/usr/bin/../lib/gcc/powerpc-unknown-nto-qnx6.5.0/4.6.3\libgcc.a(_ne_sf.o)
                              (--whole-archive)
c:/program files/dspace rcphil 2016-a/compiler/qnx650_463/host/win32/x86/usr/bin/../lib/gcc/powerpc-unknown-nto-qnx6.5.0/4.6.3\libgcc.a(_gt_sf.o)
                              (--whole-archive)
c:/program files/dspace rcphil 2016-a/compiler/qnx650_463/host/win32/x86/usr/bin/../lib/gcc/powerpc-unknown-nto-qnx6.5.0/4.6.3\libgcc.a(_ge_sf.o)
                              (--whole-archive)
c:/program files/dspace rcphil 2016-a/compiler/qnx650_463/host/win32/x86/usr/bin/../lib/gcc/powerpc-unknown-nto-qnx6.5.0/4.6.3\libgcc.a(_lt_sf.o)
                              (--whole-archive)
c:/program files/dspace rcphil 2016-a/compiler/qnx650_463/host/win32/x86/usr/bin/../lib/gcc/powerpc-unknown-nto-qnx6.5.0/4.6.3\libgcc.a(_le_sf.o)
                              (--whole-archive)
c:/program files/dspace rcphil 2016-a/compiler/qnx650_463/host/win32/x86/usr/bin/../lib/gcc/powerpc-unknown-nto-qnx6.5.0/4.6.3\libgcc.a(_unord_sf.o)
                              (--whole-archive)
c:/program files/dspace rcphil 2016-a/compiler/qnx650_463/host/win32/x86/usr/bin/../lib/gcc/powerpc-unknown-nto-qnx6.5.0/4.6.3\libgcc.a(_si_to_sf.o)
                              (--whole-archive)
c:/program files/dspace rcphil 2016-a/compiler/qnx650_463/host/win32/x86/usr/bin/../lib/gcc/powerpc-unknown-nto-qnx6.5.0/4.6.3\libgcc.a(_sf_to_si.o)
                              (--whole-archive)
c:/program files/dspace rcphil 2016-a/compiler/qnx650_463/host/win32/x86/usr/bin/../lib/gcc/powerpc-unknown-nto-qnx6.5.0/4.6.3\libgcc.a(_negate_sf.o)
                              (--whole-archive)
c:/program files/dspace rcphil 2016-a/compiler/qnx650_463/host/win32/x86/usr/bin/../lib/gcc/powerpc-unknown-nto-qnx6.5.0/4.6.3\libgcc.a(_make_sf.o)
                              (--whole-archive)
c:/program files/dspace rcphil 2016-a/compiler/qnx650_463/host/win32/x86/usr/bin/../lib/gcc/powerpc-unknown-nto-qnx6.5.0/4.6.3\libgcc.a(_sf_to_df.o)
                              (--whole-archive)
c:/program files/dspace rcphil 2016-a/compiler/qnx650_463/host/win32/x86/usr/bin/../lib/gcc/powerpc-unknown-nto-qnx6.5.0/4.6.3\libgcc.a(_thenan_sf.o)
                              (--whole-archive)
c:/program files/dspace rcphil 2016-a/compiler/qnx650_463/host/win32/x86/usr/bin/../lib/gcc/powerpc-unknown-nto-qnx6.5.0/4.6.3\libgcc.a(_sf_to_usi.o)
                              (--whole-archive)
c:/program files/dspace rcphil 2016-a/compiler/qnx650_463/host/win32/x86/usr/bin/../lib/gcc/powerpc-unknown-nto-qnx6.5.0/4.6.3\libgcc.a(_usi_to_sf.o)
                              (--whole-archive)
c:/program files/dspace rcphil 2016-a/compiler/qnx650_463/host/win32/x86/usr/bin/../lib/gcc/powerpc-unknown-nto-qnx6.5.0/4.6.3\libgcc.a(_pack_df.o)
                              (--whole-archive)
c:/program files/dspace rcphil 2016-a/compiler/qnx650_463/host/win32/x86/usr/bin/../lib/gcc/powerpc-unknown-nto-qnx6.5.0/4.6.3\libgcc.a(_unpack_df.o)
                              (--whole-archive)
c:/program files/dspace rcphil 2016-a/compiler/qnx650_463/host/win32/x86/usr/bin/../lib/gcc/powerpc-unknown-nto-qnx6.5.0/4.6.3\libgcc.a(_addsub_df.o)
                              (--whole-archive)
c:/program files/dspace rcphil 2016-a/compiler/qnx650_463/host/win32/x86/usr/bin/../lib/gcc/powerpc-unknown-nto-qnx6.5.0/4.6.3\libgcc.a(_mul_df.o)
                              (--whole-archive)
c:/program files/dspace rcphil 2016-a/compiler/qnx650_463/host/win32/x86/usr/bin/../lib/gcc/powerpc-unknown-nto-qnx6.5.0/4.6.3\libgcc.a(_div_df.o)
                              (--whole-archive)
c:/program files/dspace rcphil 2016-a/compiler/qnx650_463/host/win32/x86/usr/bin/../lib/gcc/powerpc-unknown-nto-qnx6.5.0/4.6.3\libgcc.a(_fpcmp_parts_df.o)
                              (--whole-archive)
c:/program files/dspace rcphil 2016-a/compiler/qnx650_463/host/win32/x86/usr/bin/../lib/gcc/powerpc-unknown-nto-qnx6.5.0/4.6.3\libgcc.a(_compare_df.o)
                              (--whole-archive)
c:/program files/dspace rcphil 2016-a/compiler/qnx650_463/host/win32/x86/usr/bin/../lib/gcc/powerpc-unknown-nto-qnx6.5.0/4.6.3\libgcc.a(_eq_df.o)
                              (--whole-archive)
c:/program files/dspace rcphil 2016-a/compiler/qnx650_463/host/win32/x86/usr/bin/../lib/gcc/powerpc-unknown-nto-qnx6.5.0/4.6.3\libgcc.a(_ne_df.o)
                              (--whole-archive)
c:/program files/dspace rcphil 2016-a/compiler/qnx650_463/host/win32/x86/usr/bin/../lib/gcc/powerpc-unknown-nto-qnx6.5.0/4.6.3\libgcc.a(_gt_df.o)
                              (--whole-archive)
c:/program files/dspace rcphil 2016-a/compiler/qnx650_463/host/win32/x86/usr/bin/../lib/gcc/powerpc-unknown-nto-qnx6.5.0/4.6.3\libgcc.a(_ge_df.o)
                              (--whole-archive)
c:/program files/dspace rcphil 2016-a/compiler/qnx650_463/host/win32/x86/usr/bin/../lib/gcc/powerpc-unknown-nto-qnx6.5.0/4.6.3\libgcc.a(_lt_df.o)
                              (--whole-archive)
c:/program files/dspace rcphil 2016-a/compiler/qnx650_463/host/win32/x86/usr/bin/../lib/gcc/powerpc-unknown-nto-qnx6.5.0/4.6.3\libgcc.a(_le_df.o)
                              (--whole-archive)
c:/program files/dspace rcphil 2016-a/compiler/qnx650_463/host/win32/x86/usr/bin/../lib/gcc/powerpc-unknown-nto-qnx6.5.0/4.6.3\libgcc.a(_unord_df.o)
                              (--whole-archive)
c:/program files/dspace rcphil 2016-a/compiler/qnx650_463/host/win32/x86/usr/bin/../lib/gcc/powerpc-unknown-nto-qnx6.5.0/4.6.3\libgcc.a(_si_to_df.o)
                              (--whole-archive)
c:/program files/dspace rcphil 2016-a/compiler/qnx650_463/host/win32/x86/usr/bin/../lib/gcc/powerpc-unknown-nto-qnx6.5.0/4.6.3\libgcc.a(_df_to_si.o)
                              (--whole-archive)
c:/program files/dspace rcphil 2016-a/compiler/qnx650_463/host/win32/x86/usr/bin/../lib/gcc/powerpc-unknown-nto-qnx6.5.0/4.6.3\libgcc.a(_negate_df.o)
                              (--whole-archive)
c:/program files/dspace rcphil 2016-a/compiler/qnx650_463/host/win32/x86/usr/bin/../lib/gcc/powerpc-unknown-nto-qnx6.5.0/4.6.3\libgcc.a(_make_df.o)
                              (--whole-archive)
c:/program files/dspace rcphil 2016-a/compiler/qnx650_463/host/win32/x86/usr/bin/../lib/gcc/powerpc-unknown-nto-qnx6.5.0/4.6.3\libgcc.a(_df_to_sf.o)
                              (--whole-archive)
c:/program files/dspace rcphil 2016-a/compiler/qnx650_463/host/win32/x86/usr/bin/../lib/gcc/powerpc-unknown-nto-qnx6.5.0/4.6.3\libgcc.a(_thenan_df.o)
                              (--whole-archive)
c:/program files/dspace rcphil 2016-a/compiler/qnx650_463/host/win32/x86/usr/bin/../lib/gcc/powerpc-unknown-nto-qnx6.5.0/4.6.3\libgcc.a(_df_to_usi.o)
                              (--whole-archive)
c:/program files/dspace rcphil 2016-a/compiler/qnx650_463/host/win32/x86/usr/bin/../lib/gcc/powerpc-unknown-nto-qnx6.5.0/4.6.3\libgcc.a(_usi_to_df.o)
                              (--whole-archive)
c:/program files/dspace rcphil 2016-a/compiler/qnx650_463/host/win32/x86/usr/bin/../lib/gcc/powerpc-unknown-nto-qnx6.5.0/4.6.3\libgcc.a(tramp.o)
                              (--whole-archive)
c:/program files/dspace rcphil 2016-a/compiler/qnx650_463/host/win32/x86/usr/bin/../lib/gcc/powerpc-unknown-nto-qnx6.5.0/4.6.3\libgcc.a(crtsavfpr.o)
                              (--whole-archive)
c:/program files/dspace rcphil 2016-a/compiler/qnx650_463/host/win32/x86/usr/bin/../lib/gcc/powerpc-unknown-nto-qnx6.5.0/4.6.3\libgcc.a(crtresfpr.o)
                              (--whole-archive)
c:/program files/dspace rcphil 2016-a/compiler/qnx650_463/host/win32/x86/usr/bin/../lib/gcc/powerpc-unknown-nto-qnx6.5.0/4.6.3\libgcc.a(crtsavgpr.o)
                              (--whole-archive)
c:/program files/dspace rcphil 2016-a/compiler/qnx650_463/host/win32/x86/usr/bin/../lib/gcc/powerpc-unknown-nto-qnx6.5.0/4.6.3\libgcc.a(crtresgpr.o)
                              (--whole-archive)
c:/program files/dspace rcphil 2016-a/compiler/qnx650_463/host/win32/x86/usr/bin/../lib/gcc/powerpc-unknown-nto-qnx6.5.0/4.6.3\libgcc.a(crtresxfpr.o)
                              (--whole-archive)
c:/program files/dspace rcphil 2016-a/compiler/qnx650_463/host/win32/x86/usr/bin/../lib/gcc/powerpc-unknown-nto-qnx6.5.0/4.6.3\libgcc.a(crtresxgpr.o)
                              (--whole-archive)
c:/program files/dspace rcphil 2016-a/compiler/qnx650_463/host/win32/x86/usr/bin/../lib/gcc/powerpc-unknown-nto-qnx6.5.0/4.6.3\libgcc.a(e500crtres32gpr.o)
                              (--whole-archive)
c:/program files/dspace rcphil 2016-a/compiler/qnx650_463/host/win32/x86/usr/bin/../lib/gcc/powerpc-unknown-nto-qnx6.5.0/4.6.3\libgcc.a(e500crtres64gpr.o)
                              (--whole-archive)
c:/program files/dspace rcphil 2016-a/compiler/qnx650_463/host/win32/x86/usr/bin/../lib/gcc/powerpc-unknown-nto-qnx6.5.0/4.6.3\libgcc.a(e500crtres64gprctr.o)
                              (--whole-archive)
c:/program files/dspace rcphil 2016-a/compiler/qnx650_463/host/win32/x86/usr/bin/../lib/gcc/powerpc-unknown-nto-qnx6.5.0/4.6.3\libgcc.a(e500crtrest32gpr.o)
                              (--whole-archive)
c:/program files/dspace rcphil 2016-a/compiler/qnx650_463/host/win32/x86/usr/bin/../lib/gcc/powerpc-unknown-nto-qnx6.5.0/4.6.3\libgcc.a(e500crtrest64gpr.o)
                              (--whole-archive)
c:/program files/dspace rcphil 2016-a/compiler/qnx650_463/host/win32/x86/usr/bin/../lib/gcc/powerpc-unknown-nto-qnx6.5.0/4.6.3\libgcc.a(e500crtresx32gpr.o)
                              (--whole-archive)
c:/program files/dspace rcphil 2016-a/compiler/qnx650_463/host/win32/x86/usr/bin/../lib/gcc/powerpc-unknown-nto-qnx6.5.0/4.6.3\libgcc.a(e500crtresx64gpr.o)
                              (--whole-archive)
c:/program files/dspace rcphil 2016-a/compiler/qnx650_463/host/win32/x86/usr/bin/../lib/gcc/powerpc-unknown-nto-qnx6.5.0/4.6.3\libgcc.a(e500crtsav32gpr.o)
                              (--whole-archive)
c:/program files/dspace rcphil 2016-a/compiler/qnx650_463/host/win32/x86/usr/bin/../lib/gcc/powerpc-unknown-nto-qnx6.5.0/4.6.3\libgcc.a(e500crtsav64gpr.o)
                              (--whole-archive)
c:/program files/dspace rcphil 2016-a/compiler/qnx650_463/host/win32/x86/usr/bin/../lib/gcc/powerpc-unknown-nto-qnx6.5.0/4.6.3\libgcc.a(e500crtsav64gprctr.o)
                              (--whole-archive)
c:/program files/dspace rcphil 2016-a/compiler/qnx650_463/host/win32/x86/usr/bin/../lib/gcc/powerpc-unknown-nto-qnx6.5.0/4.6.3\libgcc.a(e500crtsavg32gpr.o)
                              (--whole-archive)
c:/program files/dspace rcphil 2016-a/compiler/qnx650_463/host/win32/x86/usr/bin/../lib/gcc/powerpc-unknown-nto-qnx6.5.0/4.6.3\libgcc.a(e500crtsavg64gpr.o)
                              (--whole-archive)
c:/program files/dspace rcphil 2016-a/compiler/qnx650_463/host/win32/x86/usr/bin/../lib/gcc/powerpc-unknown-nto-qnx6.5.0/4.6.3\libgcc.a(e500crtsavg64gprctr.o)
                              (--whole-archive)
c:/program files/dspace rcphil 2016-a/compiler/qnx650_463/host/win32/x86/usr/bin/../lib/gcc/powerpc-unknown-nto-qnx6.5.0/4.6.3\libgcc.a(unwind-dw2.o)
                              (--whole-archive)
c:/program files/dspace rcphil 2016-a/compiler/qnx650_463/host/win32/x86/usr/bin/../lib/gcc/powerpc-unknown-nto-qnx6.5.0/4.6.3\libgcc.a(unwind-dw2-fde.o)
                              (--whole-archive)
c:/program files/dspace rcphil 2016-a/compiler/qnx650_463/host/win32/x86/usr/bin/../lib/gcc/powerpc-unknown-nto-qnx6.5.0/4.6.3\libgcc.a(unwind-sjlj.o)
                              (--whole-archive)
c:/program files/dspace rcphil 2016-a/compiler/qnx650_463/host/win32/x86/usr/bin/../lib/gcc/powerpc-unknown-nto-qnx6.5.0/4.6.3\libgcc.a(unwind-c.o)
                              (--whole-archive)
c:/program files/dspace rcphil 2016-a/compiler/qnx650_463/host/win32/x86/usr/bin/../lib/gcc/powerpc-unknown-nto-qnx6.5.0/4.6.3\libgcc.a(emutls.o)
                              (--whole-archive)

Memory Configuration

Name             Origin             Length             Attributes
*default*        0x00000000         0xffffffff

Linker script and memory map

LOAD C:\Program Files\dSPACE RCPHIL 2016-A\Compiler\QNX650_463\target\qnx6/ppcbe/lib/crt1.o
LOAD C:\Program Files\dSPACE RCPHIL 2016-A\Compiler\QNX650_463\target\qnx6/ppcbe/lib/crti.o
LOAD c:/program files/dspace rcphil 2016-a/compiler/qnx650_463/host/win32/x86/usr/bin/../lib/gcc/powerpc-unknown-nto-qnx6.5.0/4.6.3/crtbegin.o
                0x00000000                _DSPACE_START = 0x0
                0x00000000                _DSPACE_START_ = 0x0
                0x000003ef                DS_TARGET_PLATFORM = 0x3ef
START GROUP
LOAD SystemFunc.o07
LOAD HandFunc.o07
LOAD WAMFunc.o07
LOAD AVSFunc.o07
LOAD HandApp.o07
LOAD WAMApp.o07
LOAD WAM2App.o07
LOAD AVSApp.o07
LOAD XYZstageApp.o07
LOAD LinkHomoMat.o07
LOAD vec3DRot.o07
LOAD vec3DInProduct.o07
LOAD pmatrix.o07
LOAD homoMat.o07
LOAD myMatrix.o07
LOAD Vector.o07
LOAD Kalman.o07
LOAD Predict3D.o07
LOAD throwJnt2armJnt.o07
LOAD storeData.o07
LOAD TaskSet.o07
LOAD handEnc2JntAng.o07
LOAD rtiethernetdecode.o07
LOAD handTraj.o07
LOAD handJntAngLimit.o07
LOAD handCtrl.o07
LOAD handJntTrq2DA.o07
LOAD handDALimit.o07
LOAD rtiethernetencode.o07
LOAD XYZstageTraj.o07
LOAD XYZstageAngLimit.o07
LOAD XYZstageEnc2JntAng.o07
LOAD XYZstageCtrl.o07
LOAD XYZstageTrq2DA.o07
LOAD XYZstageDALimit.o07
LOAD SystemSet.o07
LOAD base.o07
LOAD base_data.o07
LOAD base_trc_ptr.o07
LOAD rtGetInf.o07
LOAD rtGetNaN.o07
LOAD rt_i32zcfcn.o07
LOAD rt_matrx.o07
LOAD rt_nonfinite.o07
LOAD rt_printf.o07
LOAD rti_sim_engine.o07
LOAD rti_init_c.o07
LOAD rt_sim.o07
LOAD rti_assert.o07
LOAD C:\Program Files\dSPACE RCPHIL 2016-A\DS1007\Lib\librtcan.so
LOAD C:\Program Files\dSPACE RCPHIL 2016-A\DS1007\Lib\librteth.so
LOAD C:\Program Files\dSPACE RCPHIL 2016-A\DS1007\Lib\librtfr.so
LOAD C:\Program Files\dSPACE RCPHIL 2016-A\DS1007\Lib\librtlin.so
LOAD C:\Program Files\dSPACE RCPHIL 2016-A\DS1007\Lib\librtrpcu.so
LOAD C:\Program Files\dSPACE RCPHIL 2016-A\DS1007\Lib\librtser.so
LOAD C:\Program Files\dSPACE RCPHIL 2016-A\DS1007\Lib\librtj1939.so
LOAD C:\Program Files\dSPACE RCPHIL 2016-A\DS1007\Lib\librt2001.so
LOAD C:\Program Files\dSPACE RCPHIL 2016-A\DS1007\Lib\librt2002.so
LOAD C:\Program Files\dSPACE RCPHIL 2016-A\DS1007\Lib\librt2003.so
LOAD C:\Program Files\dSPACE RCPHIL 2016-A\DS1007\Lib\librt2004.so
LOAD C:\Program Files\dSPACE RCPHIL 2016-A\DS1007\Lib\librt2101.so
LOAD C:\Program Files\dSPACE RCPHIL 2016-A\DS1007\Lib\librt2102.so
LOAD C:\Program Files\dSPACE RCPHIL 2016-A\DS1007\Lib\librt2103.so
LOAD C:\Program Files\dSPACE RCPHIL 2016-A\DS1007\Lib\librt2201.so
LOAD C:\Program Files\dSPACE RCPHIL 2016-A\DS1007\Lib\librt22xx.so
LOAD C:\Program Files\dSPACE RCPHIL 2016-A\DS1007\Lib\librt2301.so
LOAD C:\Program Files\dSPACE RCPHIL 2016-A\DS1007\Lib\librt2302.so
LOAD C:\Program Files\dSPACE RCPHIL 2016-A\DS1007\Lib\librt2401.so
LOAD C:\Program Files\dSPACE RCPHIL 2016-A\DS1007\Lib\librt3001.so
LOAD C:\Program Files\dSPACE RCPHIL 2016-A\DS1007\Lib\librt3002.so
LOAD C:\Program Files\dSPACE RCPHIL 2016-A\DS1007\Lib\librt4001.so
LOAD C:\Program Files\dSPACE RCPHIL 2016-A\DS1007\Lib\librt4002.so
LOAD C:\Program Files\dSPACE RCPHIL 2016-A\DS1007\Lib\librt4003.so
LOAD C:\Program Files\dSPACE RCPHIL 2016-A\DS1007\Lib\librt4004.so
LOAD C:\Program Files\dSPACE RCPHIL 2016-A\DS1007\Lib\librt4101.so
LOAD C:\Program Files\dSPACE RCPHIL 2016-A\DS1007\Lib\librt4120.so
LOAD C:\Program Files\dSPACE RCPHIL 2016-A\DS1007\Lib\librt4121.so
LOAD C:\Program Files\dSPACE RCPHIL 2016-A\DS1007\Lib\librt4201.so
LOAD C:\Program Files\dSPACE RCPHIL 2016-A\DS1007\Lib\librt4201s.so
LOAD C:\Program Files\dSPACE RCPHIL 2016-A\DS1007\Lib\librt4301.so
LOAD C:\Program Files\dSPACE RCPHIL 2016-A\DS1007\Lib\librt4302.so
LOAD C:\Program Files\dSPACE RCPHIL 2016-A\DS1007\Lib\librt4330.so
LOAD C:\Program Files\dSPACE RCPHIL 2016-A\DS1007\Lib\librt4501.so
LOAD C:\Program Files\dSPACE RCPHIL 2016-A\DS1007\Lib\librt4505.so
LOAD C:\Program Files\dSPACE RCPHIL 2016-A\DS1007\Lib\librt5001.so
LOAD C:\Program Files\dSPACE RCPHIL 2016-A\DS1007\Lib\librt5101.so
LOAD C:\Program Files\dSPACE RCPHIL 2016-A\DS1007\Lib\librt5201.so
LOAD C:\Program Files\dSPACE RCPHIL 2016-A\DS1007\Lib\librt5202.so
LOAD C:\Program Files\dSPACE RCPHIL 2016-A\DS1007\Lib\librt5203.so
LOAD C:\Program Files\dSPACE RCPHIL 2016-A\DS1007\Lib\libDsRealTimeTestingRP.so
LOAD C:\Program Files\dSPACE RCPHIL 2016-A\DS1007\Lib\libDsXcpRP.so
LOAD C:\Program Files\dSPACE RCPHIL 2016-A\DS1007\Lib\libDsNvDataRP.so
LOAD C:\Program Files\dSPACE RCPHIL 2016-A\DS1007\Lib\libDsNVDataCommon.so
LOAD C:\Program Files\dSPACE RCPHIL 2016-A\DS1007\Lib\librt1007.so
LOAD C:\Program Files\dSPACE RCPHIL 2016-A\DS1007\Lib\librtversion.a
LOAD C:\Program Files\dSPACE RCPHIL 2016-A\DS1007\Lib\librtglobals.a
LOAD C:\Program Files\dSPACE RCPHIL 2016-A\DS1007\Lib\libm_fastpow.a
LOAD c:/program files/dspace rcphil 2016-a/compiler/qnx650_463/host/win32/x86/usr/bin/../lib/gcc/powerpc-unknown-nto-qnx6.5.0/4.6.3\libgcc.a
END GROUP
LOAD C:\Program Files\dSPACE RCPHIL 2016-A\Compiler\QNX650_463\target\qnx6/ppcbe/lib/gcc/4.6.3/libstdc++.so
LOAD C:\Program Files\dSPACE RCPHIL 2016-A\Compiler\QNX650_463\target\qnx6/ppcbe/lib/libm.so
LOAD c:/program files/dspace rcphil 2016-a/compiler/qnx650_463/host/win32/x86/usr/bin/../lib/gcc/powerpc-unknown-nto-qnx6.5.0/4.6.3/libgcc.a
LOAD C:\Program Files\dSPACE RCPHIL 2016-A\Compiler\QNX650_463\target\qnx6/ppcbe/lib/libc.so
LOAD C:\Program Files\dSPACE RCPHIL 2016-A\Compiler\QNX650_463\target\qnx6/ppcbe/lib\libc.a
LOAD c:/program files/dspace rcphil 2016-a/compiler/qnx650_463/host/win32/x86/usr/bin/../lib/gcc/powerpc-unknown-nto-qnx6.5.0/4.6.3/libgcc.a
LOAD c:/program files/dspace rcphil 2016-a/compiler/qnx650_463/host/win32/x86/usr/bin/../lib/gcc/powerpc-unknown-nto-qnx6.5.0/4.6.3/crtend.o
LOAD C:\Program Files\dSPACE RCPHIL 2016-A\Compiler\QNX650_463\target\qnx6/ppcbe/lib/crtn.o
                0x00000000                PROVIDE (__stack, 0x0)
                0x00000000                PROVIDE (___stack, 0x0)
                0x48040000                PROVIDE (__executable_start, 0x48040000)
                0x48040114                . = (0x48040000 + SIZEOF_HEADERS)

.interp         0x48040114       0x14
 *(.interp)
 .interp        0x48040114       0x14 C:\Program Files\dSPACE RCPHIL 2016-A\Compiler\QNX650_463\target\qnx6/ppcbe/lib/crt1.o

.note           0x48040130       0x18
 .note          0x48040130       0x18 C:\Program Files\dSPACE RCPHIL 2016-A\Compiler\QNX650_463\target\qnx6/ppcbe/lib/crtn.o

.note.gnu.build-id
 *(.note.gnu.build-id)

.hash           0x48040148      0x4c0
 *(.hash)
 .hash          0x48040148      0x4c0 C:\Program Files\dSPACE RCPHIL 2016-A\Compiler\QNX650_463\target\qnx6/ppcbe/lib/crt1.o

.gnu.hash
 *(.gnu.hash)

.dynsym         0x48040608      0xab0
 *(.dynsym)
 .dynsym        0x48040608      0xab0 C:\Program Files\dSPACE RCPHIL 2016-A\Compiler\QNX650_463\target\qnx6/ppcbe/lib/crt1.o

.dynstr         0x480410b8      0xd6a
 *(.dynstr)
 .dynstr        0x480410b8      0xd6a C:\Program Files\dSPACE RCPHIL 2016-A\Compiler\QNX650_463\target\qnx6/ppcbe/lib/crt1.o

.gnu.version    0x48041e22        0x0
 *(.gnu.version)
 .gnu.version   0x00000000        0x0 C:\Program Files\dSPACE RCPHIL 2016-A\Compiler\QNX650_463\target\qnx6/ppcbe/lib/crt1.o

.gnu.version_d  0x48041e24        0x0
 *(.gnu.version_d)
 .gnu.version_d
                0x00000000        0x0 C:\Program Files\dSPACE RCPHIL 2016-A\Compiler\QNX650_463\target\qnx6/ppcbe/lib/crt1.o

.gnu.version_r  0x48041e24        0x0
 *(.gnu.version_r)
 .gnu.version_r
                0x00000000        0x0 C:\Program Files\dSPACE RCPHIL 2016-A\Compiler\QNX650_463\target\qnx6/ppcbe/lib/crt1.o

.rel.dyn
 *(.rel.init)
 *(.rel.text .rel.text.* .rel.gnu.linkonce.t.*)
 *(.rel.fini)
 *(.rel.rodata .rel.rodata.* .rel.gnu.linkonce.r.*)
 *(.rel.data.rel.ro* .rel.gnu.linkonce.d.rel.ro.*)
 *(.rel.data .rel.data.* .rel.gnu.linkonce.d.*)
 *(.rel.tdata .rel.tdata.* .rel.gnu.linkonce.td.*)
 *(.rel.tbss .rel.tbss.* .rel.gnu.linkonce.tb.*)
 *(.rel.ctors)
 *(.rel.dtors)
 *(.rel.got)
 *(.rel.sdata .rel.sdata.* .rel.gnu.linkonce.s.*)
 *(.rel.sbss .rel.sbss.* .rel.gnu.linkonce.sb.*)
 *(.rel.sdata2 .rel.sdata2.* .rel.gnu.linkonce.s2.*)
 *(.rel.sbss2 .rel.sbss2.* .rel.gnu.linkonce.sb2.*)
 *(.rel.bss .rel.bss.* .rel.gnu.linkonce.b.*)

.rela.dyn       0x48041e24       0x78
 *(.rela.init)
 *(.rela.text .rela.text.* .rela.gnu.linkonce.t.*)
 .rela.text     0x00000000        0x0 C:\Program Files\dSPACE RCPHIL 2016-A\Compiler\QNX650_463\target\qnx6/ppcbe/lib/crt1.o
 .rela.text.startup
                0x00000000        0x0 C:\Program Files\dSPACE RCPHIL 2016-A\Compiler\QNX650_463\target\qnx6/ppcbe/lib/crt1.o
 *(.rela.fini)
 *(.rela.rodata .rela.rodata.* .rela.gnu.linkonce.r.*)
 .rela.rodata   0x00000000        0x0 C:\Program Files\dSPACE RCPHIL 2016-A\Compiler\QNX650_463\target\qnx6/ppcbe/lib/crt1.o
 *(.rela.data .rela.data.* .rela.gnu.linkonce.d.*)
 *(.rela.tdata .rela.tdata.* .rela.gnu.linkonce.td.*)
 *(.rela.tbss .rela.tbss.* .rela.gnu.linkonce.tb.*)
 *(.rela.ctors)
 *(.rela.dtors)
 *(.rela.got)
 .rela.got      0x48041e24       0x30 C:\Program Files\dSPACE RCPHIL 2016-A\Compiler\QNX650_463\target\qnx6/ppcbe/lib/crt1.o
 *(.rela.got1)
 *(.rela.got2)
 *(.rela.sdata .rela.sdata.* .rela.gnu.linkonce.s.*)
 *(.rela.sbss .rela.sbss.* .rela.gnu.linkonce.sb.*)
 .rela.sbss     0x00000000        0x0 C:\Program Files\dSPACE RCPHIL 2016-A\Compiler\QNX650_463\target\qnx6/ppcbe/lib/crt1.o
 *(.rela.sdata2 .rela.sdata2.* .rela.gnu.linkonce.s2.*)
 *(.rela.sbss2 .rela.sbss2.* .rela.gnu.linkonce.sb2.*)
 *(.rela.bss .rela.bss.* .rela.gnu.linkonce.b.*)
 .rela.bss      0x48041e54       0x48 C:\Program Files\dSPACE RCPHIL 2016-A\Compiler\QNX650_463\target\qnx6/ppcbe/lib/crt1.o
 .rela.iplt     0x00000000        0x0 C:\Program Files\dSPACE RCPHIL 2016-A\Compiler\QNX650_463\target\qnx6/ppcbe/lib/crt1.o

.rel.plt
 *(.rel.plt)

.rela.plt       0x48041e9c      0x510
 *(.rela.plt)
 .rela.plt      0x48041e9c      0x510 C:\Program Files\dSPACE RCPHIL 2016-A\Compiler\QNX650_463\target\qnx6/ppcbe/lib/crt1.o

.init           0x480423ac       0x24
 *(.init)
 .init          0x480423ac        0xc C:\Program Files\dSPACE RCPHIL 2016-A\Compiler\QNX650_463\target\qnx6/ppcbe/lib/crti.o
                0x480423ac                _init
 .init          0x480423b8        0x4 c:/program files/dspace rcphil 2016-a/compiler/qnx650_463/host/win32/x86/usr/bin/../lib/gcc/powerpc-unknown-nto-qnx6.5.0/4.6.3/crtbegin.o
 .init          0x480423bc        0x4 c:/program files/dspace rcphil 2016-a/compiler/qnx650_463/host/win32/x86/usr/bin/../lib/gcc/powerpc-unknown-nto-qnx6.5.0/4.6.3/crtend.o
 .init          0x480423c0       0x10 C:\Program Files\dSPACE RCPHIL 2016-A\Compiler\QNX650_463\target\qnx6/ppcbe/lib/crtn.o

.text           0x480423d0    0x1bf20
                0x480423d0                _btext = .
 *(.text .stub .text.* .gnu.linkonce.t.*)
 .text          0x480423d0      0x118 C:\Program Files\dSPACE RCPHIL 2016-A\Compiler\QNX650_463\target\qnx6/ppcbe/lib/crt1.o
                0x480423d0                _start
 .text          0x480424e8        0x0 C:\Program Files\dSPACE RCPHIL 2016-A\Compiler\QNX650_463\target\qnx6/ppcbe/lib/crti.o
 .text          0x480424e8      0x1b8 c:/program files/dspace rcphil 2016-a/compiler/qnx650_463/host/win32/x86/usr/bin/../lib/gcc/powerpc-unknown-nto-qnx6.5.0/4.6.3/crtbegin.o
 .text          0x480426a0      0x214 SystemFunc.o07
                0x480426a0                dspaceInit
                0x480427f0                dspaceServoOn
                0x48042800                dspaceServoOff
                0x48042810                dspaceSetDAZero
 *fill*         0x480428b4        0xc 00000000
 .text          0x480428c0      0x950 HandFunc.o07
                0x480428c0                handSetOrigin
                0x48042920                handSetLinkPara
                0x48042b60                handSetOffsetLinkPara
                0x48042e70                handInit
                0x48042f30                handKineLinkVar
 .text          0x48043210      0x710 WAMFunc.o07
                0x48043210                wamSetOrigin
                0x48043270                wamSetLinkPara
                0x48043430                wamSetOffsetLinkPara
                0x48043520                wamInit
                0x480435d0                wamAng2VelAccJer
                0x48043670                wamPos2Vel
                0x480436b0                wamKineLinkVar
                0x48043830                wamKineJntEffVar
                0x480438a0                wamJntAng2MotorAng
 .text          0x48043920      0x258 AVSFunc.o07
                0x48043920                avsEncToJntAng
                0x48043a10                avsInit
                0x48043a40                avsCheckInitEnc
                0x48043b70                avsServoOff
 *fill*         0x48043b78        0x8 00000000
 .text          0x48043b80     0x1f38 HandApp.o07
                0x48043b80                invKine
                0x48043e70                UturnKine
                0x48044510                Xturn2
                0x48044930                Yturn2
                0x480452d0                Yturn
                0x480454a0                execFromString
                0x480456f0                trajGeneLine
                0x48045710                handWaveGeneSin
                0x48045780                handTrajApp
                0x48045a70                handAppSet
 *fill*         0x48045ab8        0x8 00000000
 .text          0x48045ac0      0x214 WAMApp.o07
                0x48045ac0                least_square
                0x48045c40                wamTrajApp
                0x48045c70                wamAppSet
 *fill*         0x48045cd4        0xc 00000000
 .text          0x48045ce0      0x574 WAM2App.o07
                0x48045ce0                wamTra5th
                0x48045d70                waveGeneSin
                0x48045de0                waveGeneExp
                0x48045f40                wam2TrajApp
                0x480461f0                wam2AppSet
 *fill*         0x48046254        0xc 00000000
 .text          0x48046260      0x130 AVSApp.o07
                0x48046260                avsTrajApp
                0x48046330                avsVisualTrajApp
                0x48046360                avsAppSet
 .text          0x48046390      0x124 XYZstageApp.o07
                0x48046390                xyzTrajApp
                0x48046490                xyzAppSet
 *fill*         0x480464b4        0xc 00000000
 .text          0x480464c0      0x15c LinkHomoMat.o07
                0x480464c0                linkHomoMat
                0x480465c0                linkHomoMatCS
 *fill*         0x4804661c        0x4 00000000
 .text          0x48046620       0x6c vec3DRot.o07
                0x48046620                vec3DRot
 *fill*         0x4804668c        0x4 00000000
 .text          0x48046690       0x28 vec3DInProduct.o07
                0x48046690                vec3DInProduct
 *fill*         0x480466b8        0x8 00000000
 .text          0x480466c0      0x5e4 pmatrix.o07
                0x480466c0                pmatPrint
                0x480467b0                pmatCopy
                0x48046810                pmatCompare
                0x48046890                pmatUnit
                0x48046910                pmatAdd
                0x48046980                pmatSub
                0x480469f0                pmatMul
                0x48046b60                pmatTrans
                0x48046c70                pmatTrace
 *fill*         0x48046ca4        0xc 00000000
 .text          0x48046cb0      0x480 homoMat.o07
                0x48046cb0                homoMatPrint
                0x48046db0                homoMatCopy
                0x48046df0                homoMatFile
                0x48046f00                homoMatMul
                0x480470a0                homoMatInv
 .text          0x48047130      0x58c myMatrix.o07
                0x48047130                dmatInit
                0x48047280                dmatZeros
                0x48047320                dmatFree
                0x480473a0                dmatCopy
                0x48047450                fmatInit
                0x480475a0                fmatZeros
                0x48047640                fmatFree
 *fill*         0x480476bc        0x4 00000000
 .text          0x480476c0      0x304 Vector.o07
                0x480476c0                dvecInit
                0x48047760                dvecZeros
                0x480477d0                dvecCopy
                0x48047800                dvecFree
                0x48047830                fvecInit
                0x480478d0                fvecFree
                0x48047900                ivecInit
                0x480479a0                ivecFree
 *fill*         0x480479c4        0xc 00000000
 .text          0x480479d0      0xb68 Kalman.o07
                0x480479d0                mat2UD
                0x48047bf0                UD2mat
                0x48047e00                kalmanObservUpdateUD
                0x48048140                kalmanTimeUpdateUD
 *fill*         0x48048538        0x8 00000000
 .text          0x48048540      0x7f4 Predict3D.o07
                0x48048540                predict3D_init
                0x48048710                predict3D_start
                0x480487d0                predict3D
                0x480489e0                predict3D_calc
                0x48048a80                predict_trajectory
                0x48048c10                predict3D_exit
                0x48048d00                predict3D_get
 *fill*         0x48048d34        0xc 00000000
 .text          0x48048d40     0x16dc throwJnt2armJnt.o07
                0x48048d40                throwModelJnt2armJnt
                0x48049470                battingModelJnt2armJnt
                0x48049cc0                armJnt2battingModelJnt
 *fill*         0x4804a41c        0x4 00000000
 .text          0x4804a420       0x7c storeData.o07
                0x4804a420                storeInDATA
 *fill*         0x4804a49c        0x4 00000000
 .text          0x4804a4a0      0x180 TaskSet.o07
                0x4804a5e0                TaskSet
 .text          0x4804a620      0x1d4 handEnc2JntAng.o07
                0x4804a7c0                handEnc2JntAng
 *fill*         0x4804a7f4        0xc 00000000
 .text          0x4804a800     0x1000 rtiethernetdecode.o07
                0x4804b7c0                rtiethernetdecode
 .text          0x4804b800      0x830 handTraj.o07
                0x4804b970                handTrajStart
                0x4804bb00                handTrajEnd
                0x4804bff0                handTraj
 .text          0x4804c030      0x1e4 handJntAngLimit.o07
                0x4804c1e0                handJntAngLimit
 *fill*         0x4804c214        0xc 00000000
 .text          0x4804c220      0x420 handCtrl.o07
                0x4804c310                handCtrlPD
                0x4804c600                handCtrl
 .text          0x4804c640      0x104 handJntTrq2DA.o07
                0x4804c710                handJntTrq2DA
 *fill*         0x4804c744        0xc 00000000
 .text          0x4804c750      0x174 handDALimit.o07
                0x4804c890                handDALimit
 *fill*         0x4804c8c4        0xc 00000000
 .text          0x4804c8d0      0xfb0 rtiethernetencode.o07
                0x4804d840                rtiethernetencode
 .text          0x4804d880      0x650 XYZstageTraj.o07
                0x4804d9a0                xyzTrajStart
                0x4804db30                xyzTrajEnd
                0x4804de90                XYZstageTraj
 .text          0x4804ded0      0x194 XYZstageAngLimit.o07
                0x4804e030                XYZstageAngLimit
 *fill*         0x4804e064        0xc 00000000
 .text          0x4804e070      0x174 XYZstageEnc2JntAng.o07
                0x4804e1b0                XYZstageEnc2JntAng
 *fill*         0x4804e1e4        0xc 00000000
 .text          0x4804e1f0      0x230 XYZstageCtrl.o07
                0x4804e2c0                xyzCtrlPD
                0x4804e3e0                XYZstageCtrl
 .text          0x4804e420      0x104 XYZstageTrq2DA.o07
                0x4804e4f0                XYZstageTrq2DA
 *fill*         0x4804e524        0xc 00000000
 .text          0x4804e530      0x1c0 XYZstageDALimit.o07
                0x4804e6b0                XYZstageDALimit
 .text          0x4804e6f0      0x200 SystemSet.o07
                0x4804e8b0                SystemSet
 .text          0x4804e8f0     0x2c4c base.o07
                0x4804e8f0                MdlOutputs
                0x4804ed50                MdlUpdate
                0x4804edd0                MdlInitializeSizes
                0x4804ede0                MdlInitializeSampleTimes
                0x4804edf0                MdlInitialize
                0x4804ee00                MdlStart
                0x4804f0f0                MdlTerminate
                0x4804f270                base
 .text          0x4805153c        0x0 base_data.o07
 *fill*         0x4805153c        0x4 00000000
 .text          0x48051540       0xf0 base_trc_ptr.o07
                0x48051600                base_rti_init_trc_pointers
 .text          0x48051630       0x5c rtGetInf.o07
                0x48051630                rtGetInf
                0x48051650                rtGetInfF
                0x48051660                rtGetMinusInf
                0x48051680                rtGetMinusInfF
 *fill*         0x4805168c        0x4 00000000
 .text          0x48051690       0x4c rtGetNaN.o07
                0x48051690                rtGetNaN
                0x480516c0                rtGetNaNF
 *fill*         0x480516dc        0x4 00000000
 .text          0x480516e0       0xdc rt_i32zcfcn.o07
                0x480516e0                rt_I32ZCFcn
 *fill*         0x480517bc        0x4 00000000
 .text          0x480517c0      0x65c rt_matrx.o07
                0x480517c0                rt_mxCreateCharMatrixFromStrings
                0x480519b0                rt_mxCreateString
                0x48051a80                rt_mxCreateDoubleMatrix
                0x48051b20                rt_mxCreateNumericArray
                0x48051b50                rt_mxDuplicateArray
                0x48051c40                rt_mxGetDimensions
                0x48051d00                rt_mxGetEps
                0x48051d10                rt_mxGetString
 *fill*         0x48051e1c        0x4 00000000
 .text          0x48051e20       0xf4 rt_nonfinite.o07
                0x48051e20                rt_InitInfAndNaN
                0x48051e80                rtIsInf
                0x48051eb0                rtIsInfF
                0x48051ee0                rtIsNaN
                0x48051f00                rtIsNaNF
 *fill*         0x48051f14        0xc 00000000
 .text          0x48051f20       0xc8 rt_printf.o07
                0x48051f20                rtPrintfNoOp
 *fill*         0x48051fe8        0x8 00000000
 .text          0x48051ff0      0x524 rti_sim_engine.o07
                0x480524a0                rtk_idle_function
                0x480524b0                rti_th_timertask1_trigger_source
                0x48052500                initConditions
                0x48052510                initVariables
 *fill*         0x48052514        0xc 00000000
 .text.startup  0x48052520      0x694 rti_sim_engine.o07
                0x48052520                main
 *fill*         0x48052bb4        0xc 00000000
 .text          0x48052bc0       0x40 rti_init_c.o07
                0x48052bc0                rti_init
 .text          0x48052c00       0x34 rt_sim.o07
                0x48052c00                rt_SimInitTimingEngine
                0x48052c20                rt_SimGetNextSampleHit
                0x48052c30                rt_SimUpdateDiscreteTaskSampleHits
 *fill*         0x48052c34        0xc 00000000
 .text          0x48052c40      0x124 rti_assert.o07
                0x48052c40                rti_assertion_handler
                0x48052cf0                rti_assertion_mode_msg
 .text          0x48052d64        0x0 C:\Program Files\dSPACE RCPHIL 2016-A\DS1007\Lib\librtversion.a(RtVersion.o)
 *fill*         0x48052d64        0xc 00000000
 .text          0x48052d70        0x4 C:\Program Files\dSPACE RCPHIL 2016-A\DS1007\Lib\librtglobals.a(DsEESPort.o)
                0x48052d70                DsEesPort_init()
 .text          0x48052d74       0x20 C:\Program Files\dSPACE RCPHIL 2016-A\DS1007\Lib\libm_fastpow.a(w_pow.o)
                0x48052d74                pow
 .text          0x48052d94      0x85c C:\Program Files\dSPACE RCPHIL 2016-A\DS1007\Lib\libm_fastpow.a(e_pow.o)
                0x48052d94                __ieee754_pow
 .text          0x480535f0      0x188 C:\Program Files\dSPACE RCPHIL 2016-A\DS1007\Lib\libm_fastpow.a(s_scalbn.o)
                0x480535f0                scalbn
 .text          0x48053778       0x1c c:/program files/dspace rcphil 2016-a/compiler/qnx650_463/host/win32/x86/usr/bin/../lib/gcc/powerpc-unknown-nto-qnx6.5.0/4.6.3\libgcc.a(_muldi3.o)
                0x48053778                __muldi3
 .text          0x48053794       0x20 c:/program files/dspace rcphil 2016-a/compiler/qnx650_463/host/win32/x86/usr/bin/../lib/gcc/powerpc-unknown-nto-qnx6.5.0/4.6.3\libgcc.a(_negdi2.o)
                0x48053794                __negdi2
 .text          0x480537b4       0x40 c:/program files/dspace rcphil 2016-a/compiler/qnx650_463/host/win32/x86/usr/bin/../lib/gcc/powerpc-unknown-nto-qnx6.5.0/4.6.3\libgcc.a(_lshrdi3.o)
                0x480537b4                __lshrdi3
 .text          0x480537f4       0x40 c:/program files/dspace rcphil 2016-a/compiler/qnx650_463/host/win32/x86/usr/bin/../lib/gcc/powerpc-unknown-nto-qnx6.5.0/4.6.3\libgcc.a(_ashldi3.o)
                0x480537f4                __ashldi3
 .text          0x48053834       0x40 c:/program files/dspace rcphil 2016-a/compiler/qnx650_463/host/win32/x86/usr/bin/../lib/gcc/powerpc-unknown-nto-qnx6.5.0/4.6.3\libgcc.a(_ashrdi3.o)
                0x48053834                __ashrdi3
 .text          0x48053874       0x2c c:/program files/dspace rcphil 2016-a/compiler/qnx650_463/host/win32/x86/usr/bin/../lib/gcc/powerpc-unknown-nto-qnx6.5.0/4.6.3\libgcc.a(_cmpdi2.o)
                0x48053874                __cmpdi2
 .text          0x480538a0       0x2c c:/program files/dspace rcphil 2016-a/compiler/qnx650_463/host/win32/x86/usr/bin/../lib/gcc/powerpc-unknown-nto-qnx6.5.0/4.6.3\libgcc.a(_ucmpdi2.o)
                0x480538a0                __ucmpdi2
 .text          0x480538cc        0x4 c:/program files/dspace rcphil 2016-a/compiler/qnx650_463/host/win32/x86/usr/bin/../lib/gcc/powerpc-unknown-nto-qnx6.5.0/4.6.3\libgcc.a(_clear_cache.o)
                0x480538cc                __clear_cache
 .text          0x480538d0        0x4 c:/program files/dspace rcphil 2016-a/compiler/qnx650_463/host/win32/x86/usr/bin/../lib/gcc/powerpc-unknown-nto-qnx6.5.0/4.6.3\libgcc.a(_enable_execute_stack.o)
                0x480538d0                __enable_execute_stack
 .text          0x480538d4        0x0 c:/program files/dspace rcphil 2016-a/compiler/qnx650_463/host/win32/x86/usr/bin/../lib/gcc/powerpc-unknown-nto-qnx6.5.0/4.6.3\libgcc.a(_trampoline.o)
 .text          0x480538d4        0x0 c:/program files/dspace rcphil 2016-a/compiler/qnx650_463/host/win32/x86/usr/bin/../lib/gcc/powerpc-unknown-nto-qnx6.5.0/4.6.3\libgcc.a(__main.o)
 .text          0x480538d4       0x38 c:/program files/dspace rcphil 2016-a/compiler/qnx650_463/host/win32/x86/usr/bin/../lib/gcc/powerpc-unknown-nto-qnx6.5.0/4.6.3\libgcc.a(_absvsi2.o)
                0x480538d4                __absvsi2
 .text          0x4805390c       0x38 c:/program files/dspace rcphil 2016-a/compiler/qnx650_463/host/win32/x86/usr/bin/../lib/gcc/powerpc-unknown-nto-qnx6.5.0/4.6.3\libgcc.a(_absvdi2.o)
                0x4805390c                __absvdi2
 .text          0x48053944       0x54 c:/program files/dspace rcphil 2016-a/compiler/qnx650_463/host/win32/x86/usr/bin/../lib/gcc/powerpc-unknown-nto-qnx6.5.0/4.6.3\libgcc.a(_addvsi3.o)
                0x48053944                __addvsi3
 .text          0x48053998       0x68 c:/program files/dspace rcphil 2016-a/compiler/qnx650_463/host/win32/x86/usr/bin/../lib/gcc/powerpc-unknown-nto-qnx6.5.0/4.6.3\libgcc.a(_addvdi3.o)
                0x48053998                __addvdi3
 .text          0x48053a00       0x54 c:/program files/dspace rcphil 2016-a/compiler/qnx650_463/host/win32/x86/usr/bin/../lib/gcc/powerpc-unknown-nto-qnx6.5.0/4.6.3\libgcc.a(_subvsi3.o)
                0x48053a00                __subvsi3
 .text          0x48053a54       0x68 c:/program files/dspace rcphil 2016-a/compiler/qnx650_463/host/win32/x86/usr/bin/../lib/gcc/powerpc-unknown-nto-qnx6.5.0/4.6.3\libgcc.a(_subvdi3.o)
                0x48053a54                __subvdi3
 .text          0x48053abc       0x38 c:/program files/dspace rcphil 2016-a/compiler/qnx650_463/host/win32/x86/usr/bin/../lib/gcc/powerpc-unknown-nto-qnx6.5.0/4.6.3\libgcc.a(_mulvsi3.o)
                0x48053abc                __mulvsi3
 .text          0x48053af4      0x1d0 c:/program files/dspace rcphil 2016-a/compiler/qnx650_463/host/win32/x86/usr/bin/../lib/gcc/powerpc-unknown-nto-qnx6.5.0/4.6.3\libgcc.a(_mulvdi3.o)
                0x48053af4                __mulvdi3
 .text          0x48053cc4       0x44 c:/program files/dspace rcphil 2016-a/compiler/qnx650_463/host/win32/x86/usr/bin/../lib/gcc/powerpc-unknown-nto-qnx6.5.0/4.6.3\libgcc.a(_negvsi2.o)
                0x48053cc4                __negvsi2
 .text          0x48053d08       0x58 c:/program files/dspace rcphil 2016-a/compiler/qnx650_463/host/win32/x86/usr/bin/../lib/gcc/powerpc-unknown-nto-qnx6.5.0/4.6.3\libgcc.a(_negvdi2.o)
                0x48053d08                __negvdi2
 .text          0x48053d60        0x0 c:/program files/dspace rcphil 2016-a/compiler/qnx650_463/host/win32/x86/usr/bin/../lib/gcc/powerpc-unknown-nto-qnx6.5.0/4.6.3\libgcc.a(_ctors.o)
 .text          0x48053d60       0x20 c:/program files/dspace rcphil 2016-a/compiler/qnx650_463/host/win32/x86/usr/bin/../lib/gcc/powerpc-unknown-nto-qnx6.5.0/4.6.3\libgcc.a(_ffssi2.o)
                0x48053d60                __ffssi2
 .text          0x48053d80       0x4c c:/program files/dspace rcphil 2016-a/compiler/qnx650_463/host/win32/x86/usr/bin/../lib/gcc/powerpc-unknown-nto-qnx6.5.0/4.6.3\libgcc.a(_ffsdi2.o)
                0x48053d80                __ffsdi2
 .text          0x48053dcc        0x0 c:/program files/dspace rcphil 2016-a/compiler/qnx650_463/host/win32/x86/usr/bin/../lib/gcc/powerpc-unknown-nto-qnx6.5.0/4.6.3\libgcc.a(_clz.o)
 .text          0x48053dcc        0x8 c:/program files/dspace rcphil 2016-a/compiler/qnx650_463/host/win32/x86/usr/bin/../lib/gcc/powerpc-unknown-nto-qnx6.5.0/4.6.3\libgcc.a(_clzsi2.o)
                0x48053dcc                __clzsi2
 .text          0x48053dd4       0x20 c:/program files/dspace rcphil 2016-a/compiler/qnx650_463/host/win32/x86/usr/bin/../lib/gcc/powerpc-unknown-nto-qnx6.5.0/4.6.3\libgcc.a(_clzdi2.o)
                0x48053dd4                __clzdi2
 .text          0x48053df4       0x14 c:/program files/dspace rcphil 2016-a/compiler/qnx650_463/host/win32/x86/usr/bin/../lib/gcc/powerpc-unknown-nto-qnx6.5.0/4.6.3\libgcc.a(_ctzsi2.o)
                0x48053df4                __ctzsi2
 .text          0x48053e08       0x2c c:/program files/dspace rcphil 2016-a/compiler/qnx650_463/host/win32/x86/usr/bin/../lib/gcc/powerpc-unknown-nto-qnx6.5.0/4.6.3\libgcc.a(_ctzdi2.o)
                0x48053e08                __ctzdi2
 .text          0x48053e34        0x0 c:/program files/dspace rcphil 2016-a/compiler/qnx650_463/host/win32/x86/usr/bin/../lib/gcc/powerpc-unknown-nto-qnx6.5.0/4.6.3\libgcc.a(_popcount_tab.o)
 .text          0x48053e34       0x38 c:/program files/dspace rcphil 2016-a/compiler/qnx650_463/host/win32/x86/usr/bin/../lib/gcc/powerpc-unknown-nto-qnx6.5.0/4.6.3\libgcc.a(_popcountsi2.o)
                0x48053e34                __popcountsi2
 .text          0x48053e6c       0x6c c:/program files/dspace rcphil 2016-a/compiler/qnx650_463/host/win32/x86/usr/bin/../lib/gcc/powerpc-unknown-nto-qnx6.5.0/4.6.3\libgcc.a(_popcountdi2.o)
                0x48053e6c                __popcountdi2
 .text          0x48053ed8       0x2c c:/program files/dspace rcphil 2016-a/compiler/qnx650_463/host/win32/x86/usr/bin/../lib/gcc/powerpc-unknown-nto-qnx6.5.0/4.6.3\libgcc.a(_paritysi2.o)
                0x48053ed8                __paritysi2
 .text          0x48053f04       0x30 c:/program files/dspace rcphil 2016-a/compiler/qnx650_463/host/win32/x86/usr/bin/../lib/gcc/powerpc-unknown-nto-qnx6.5.0/4.6.3\libgcc.a(_paritydi2.o)
                0x48053f04                __paritydi2
 .text          0x48053f34       0x64 c:/program files/dspace rcphil 2016-a/compiler/qnx650_463/host/win32/x86/usr/bin/../lib/gcc/powerpc-unknown-nto-qnx6.5.0/4.6.3\libgcc.a(_powisf2.o)
                0x48053f34                __powisf2
 .text          0x48053f98       0x64 c:/program files/dspace rcphil 2016-a/compiler/qnx650_463/host/win32/x86/usr/bin/../lib/gcc/powerpc-unknown-nto-qnx6.5.0/4.6.3\libgcc.a(_powidf2.o)
                0x48053f98                __powidf2
 .text          0x48053ffc        0x0 c:/program files/dspace rcphil 2016-a/compiler/qnx650_463/host/win32/x86/usr/bin/../lib/gcc/powerpc-unknown-nto-qnx6.5.0/4.6.3\libgcc.a(_powixf2.o)
 .text          0x48053ffc        0x0 c:/program files/dspace rcphil 2016-a/compiler/qnx650_463/host/win32/x86/usr/bin/../lib/gcc/powerpc-unknown-nto-qnx6.5.0/4.6.3\libgcc.a(_powitf2.o)
 .text          0x48053ffc      0x3bc c:/program files/dspace rcphil 2016-a/compiler/qnx650_463/host/win32/x86/usr/bin/../lib/gcc/powerpc-unknown-nto-qnx6.5.0/4.6.3\libgcc.a(_mulsc3.o)
                0x48053ffc                __mulsc3
 .text          0x480543b8      0x3ec c:/program files/dspace rcphil 2016-a/compiler/qnx650_463/host/win32/x86/usr/bin/../lib/gcc/powerpc-unknown-nto-qnx6.5.0/4.6.3\libgcc.a(_muldc3.o)
                0x480543b8                __muldc3
 .text          0x480547a4        0x0 c:/program files/dspace rcphil 2016-a/compiler/qnx650_463/host/win32/x86/usr/bin/../lib/gcc/powerpc-unknown-nto-qnx6.5.0/4.6.3\libgcc.a(_mulxc3.o)
 .text          0x480547a4        0x0 c:/program files/dspace rcphil 2016-a/compiler/qnx650_463/host/win32/x86/usr/bin/../lib/gcc/powerpc-unknown-nto-qnx6.5.0/4.6.3\libgcc.a(_multc3.o)
 .text          0x480547a4      0x304 c:/program files/dspace rcphil 2016-a/compiler/qnx650_463/host/win32/x86/usr/bin/../lib/gcc/powerpc-unknown-nto-qnx6.5.0/4.6.3\libgcc.a(_divsc3.o)
                0x480547a4                __divsc3
 .text          0x48054aa8      0x2fc c:/program files/dspace rcphil 2016-a/compiler/qnx650_463/host/win32/x86/usr/bin/../lib/gcc/powerpc-unknown-nto-qnx6.5.0/4.6.3\libgcc.a(_divdc3.o)
                0x48054aa8                __divdc3
 .text          0x48054da4        0x0 c:/program files/dspace rcphil 2016-a/compiler/qnx650_463/host/win32/x86/usr/bin/../lib/gcc/powerpc-unknown-nto-qnx6.5.0/4.6.3\libgcc.a(_divxc3.o)
 .text          0x48054da4        0x0 c:/program files/dspace rcphil 2016-a/compiler/qnx650_463/host/win32/x86/usr/bin/../lib/gcc/powerpc-unknown-nto-qnx6.5.0/4.6.3\libgcc.a(_divtc3.o)
 .text          0x48054da4       0x14 c:/program files/dspace rcphil 2016-a/compiler/qnx650_463/host/win32/x86/usr/bin/../lib/gcc/powerpc-unknown-nto-qnx6.5.0/4.6.3\libgcc.a(_bswapsi2.o)
                0x48054da4                __bswapsi2
 .text          0x48054db8       0x24 c:/program files/dspace rcphil 2016-a/compiler/qnx650_463/host/win32/x86/usr/bin/../lib/gcc/powerpc-unknown-nto-qnx6.5.0/4.6.3\libgcc.a(_bswapdi2.o)
                0x48054db8                __bswapdi2
 .text          0x48054ddc       0x48 c:/program files/dspace rcphil 2016-a/compiler/qnx650_463/host/win32/x86/usr/bin/../lib/gcc/powerpc-unknown-nto-qnx6.5.0/4.6.3\libgcc.a(_fixunssfsi.o)
                0x48054ddc                __fixunssfsi
 .text          0x48054e24       0x48 c:/program files/dspace rcphil 2016-a/compiler/qnx650_463/host/win32/x86/usr/bin/../lib/gcc/powerpc-unknown-nto-qnx6.5.0/4.6.3\libgcc.a(_fixunsdfsi.o)
                0x48054e24                __fixunsdfsi
 .text          0x48054e6c        0x0 c:/program files/dspace rcphil 2016-a/compiler/qnx650_463/host/win32/x86/usr/bin/../lib/gcc/powerpc-unknown-nto-qnx6.5.0/4.6.3\libgcc.a(_fixunsxfsi.o)
 .text          0x48054e6c       0x68 c:/program files/dspace rcphil 2016-a/compiler/qnx650_463/host/win32/x86/usr/bin/../lib/gcc/powerpc-unknown-nto-qnx6.5.0/4.6.3\libgcc.a(_fixsfdi.o)
                0x48054e6c                __fixsfdi
 .text          0x48054ed4       0x68 c:/program files/dspace rcphil 2016-a/compiler/qnx650_463/host/win32/x86/usr/bin/../lib/gcc/powerpc-unknown-nto-qnx6.5.0/4.6.3\libgcc.a(_fixdfdi.o)
                0x48054ed4                __fixdfdi
 .text          0x48054f3c        0x0 c:/program files/dspace rcphil 2016-a/compiler/qnx650_463/host/win32/x86/usr/bin/../lib/gcc/powerpc-unknown-nto-qnx6.5.0/4.6.3\libgcc.a(_fixxfdi.o)
 .text          0x48054f3c        0x0 c:/program files/dspace rcphil 2016-a/compiler/qnx650_463/host/win32/x86/usr/bin/../lib/gcc/powerpc-unknown-nto-qnx6.5.0/4.6.3\libgcc.a(_fixtfdi.o)
 .text          0x48054f3c       0xf0 c:/program files/dspace rcphil 2016-a/compiler/qnx650_463/host/win32/x86/usr/bin/../lib/gcc/powerpc-unknown-nto-qnx6.5.0/4.6.3\libgcc.a(_fixunssfdi.o)
                0x48054f3c                __fixunssfdi
 .text          0x4805502c       0xec c:/program files/dspace rcphil 2016-a/compiler/qnx650_463/host/win32/x86/usr/bin/../lib/gcc/powerpc-unknown-nto-qnx6.5.0/4.6.3\libgcc.a(_fixunsdfdi.o)
                0x4805502c                __fixunsdfdi
 .text          0x48055118        0x0 c:/program files/dspace rcphil 2016-a/compiler/qnx650_463/host/win32/x86/usr/bin/../lib/gcc/powerpc-unknown-nto-qnx6.5.0/4.6.3\libgcc.a(_fixunsxfdi.o)
 .text          0x48055118        0x0 c:/program files/dspace rcphil 2016-a/compiler/qnx650_463/host/win32/x86/usr/bin/../lib/gcc/powerpc-unknown-nto-qnx6.5.0/4.6.3\libgcc.a(_fixunstfdi.o)
 .text          0x48055118       0xac c:/program files/dspace rcphil 2016-a/compiler/qnx650_463/host/win32/x86/usr/bin/../lib/gcc/powerpc-unknown-nto-qnx6.5.0/4.6.3\libgcc.a(_floatdisf.o)
                0x48055118                __floatdisf
 .text          0x480551c4       0x50 c:/program files/dspace rcphil 2016-a/compiler/qnx650_463/host/win32/x86/usr/bin/../lib/gcc/powerpc-unknown-nto-qnx6.5.0/4.6.3\libgcc.a(_floatdidf.o)
                0x480551c4                __floatdidf
 .text          0x48055214        0x0 c:/program files/dspace rcphil 2016-a/compiler/qnx650_463/host/win32/x86/usr/bin/../lib/gcc/powerpc-unknown-nto-qnx6.5.0/4.6.3\libgcc.a(_floatdixf.o)
 .text          0x48055214        0x0 c:/program files/dspace rcphil 2016-a/compiler/qnx650_463/host/win32/x86/usr/bin/../lib/gcc/powerpc-unknown-nto-qnx6.5.0/4.6.3\libgcc.a(_floatditf.o)
 .text          0x48055214       0x68 c:/program files/dspace rcphil 2016-a/compiler/qnx650_463/host/win32/x86/usr/bin/../lib/gcc/powerpc-unknown-nto-qnx6.5.0/4.6.3\libgcc.a(_floatundisf.o)
                0x48055214                __floatundisf
 .text          0x4805527c       0x44 c:/program files/dspace rcphil 2016-a/compiler/qnx650_463/host/win32/x86/usr/bin/../lib/gcc/powerpc-unknown-nto-qnx6.5.0/4.6.3\libgcc.a(_floatundidf.o)
                0x4805527c                __floatundidf
 .text          0x480552c0        0x0 c:/program files/dspace rcphil 2016-a/compiler/qnx650_463/host/win32/x86/usr/bin/../lib/gcc/powerpc-unknown-nto-qnx6.5.0/4.6.3\libgcc.a(_floatundixf.o)
 .text          0x480552c0        0x0 c:/program files/dspace rcphil 2016-a/compiler/qnx650_463/host/win32/x86/usr/bin/../lib/gcc/powerpc-unknown-nto-qnx6.5.0/4.6.3\libgcc.a(_floatunditf.o)
 .text          0x480552c0       0x48 c:/program files/dspace rcphil 2016-a/compiler/qnx650_463/host/win32/x86/usr/bin/../lib/gcc/powerpc-unknown-nto-qnx6.5.0/4.6.3\libgcc.a(_eprintf.o)
                0x480552c0                __eprintf
 .text          0x48055308       0x4c c:/program files/dspace rcphil 2016-a/compiler/qnx650_463/host/win32/x86/usr/bin/../lib/gcc/powerpc-unknown-nto-qnx6.5.0/4.6.3\libgcc.a(__gcc_bcmp.o)
                0x48055308                __gcc_bcmp
 .text          0x48055354      0x448 c:/program files/dspace rcphil 2016-a/compiler/qnx650_463/host/win32/x86/usr/bin/../lib/gcc/powerpc-unknown-nto-qnx6.5.0/4.6.3\libgcc.a(_divdi3.o)
                0x48055354                __divdi3
 .text          0x4805579c      0x430 c:/program files/dspace rcphil 2016-a/compiler/qnx650_463/host/win32/x86/usr/bin/../lib/gcc/powerpc-unknown-nto-qnx6.5.0/4.6.3\libgcc.a(_moddi3.o)
                0x4805579c                __moddi3
 .text          0x48055bcc      0x400 c:/program files/dspace rcphil 2016-a/compiler/qnx650_463/host/win32/x86/usr/bin/../lib/gcc/powerpc-unknown-nto-qnx6.5.0/4.6.3\libgcc.a(_udivdi3.o)
                0x48055bcc                __udivdi3
 .text          0x48055fcc      0x3d4 c:/program files/dspace rcphil 2016-a/compiler/qnx650_463/host/win32/x86/usr/bin/../lib/gcc/powerpc-unknown-nto-qnx6.5.0/4.6.3\libgcc.a(_umoddi3.o)
                0x48055fcc                __umoddi3
 .text          0x480563a0        0x8 c:/program files/dspace rcphil 2016-a/compiler/qnx650_463/host/win32/x86/usr/bin/../lib/gcc/powerpc-unknown-nto-qnx6.5.0/4.6.3\libgcc.a(_udiv_w_sdiv.o)
                0x480563a0                __udiv_w_sdiv
 .text          0x480563a8      0x4d4 c:/program files/dspace rcphil 2016-a/compiler/qnx650_463/host/win32/x86/usr/bin/../lib/gcc/powerpc-unknown-nto-qnx6.5.0/4.6.3\libgcc.a(_udivmoddi4.o)
                0x480563a8                __udivmoddi4
 .text          0x4805687c      0x130 c:/program files/dspace rcphil 2016-a/compiler/qnx650_463/host/win32/x86/usr/bin/../lib/gcc/powerpc-unknown-nto-qnx6.5.0/4.6.3\libgcc.a(_pack_sf.o)
                0x4805687c                __pack_f
 .text          0x480569ac       0xb0 c:/program files/dspace rcphil 2016-a/compiler/qnx650_463/host/win32/x86/usr/bin/../lib/gcc/powerpc-unknown-nto-qnx6.5.0/4.6.3\libgcc.a(_unpack_sf.o)
                0x480569ac                __unpack_f
 .text          0x48056a5c      0x2e0 c:/program files/dspace rcphil 2016-a/compiler/qnx650_463/host/win32/x86/usr/bin/../lib/gcc/powerpc-unknown-nto-qnx6.5.0/4.6.3\libgcc.a(_addsub_sf.o)
                0x48056c90                __addsf3
                0x48056ce0                __subsf3
 .text          0x48056d3c      0x1e4 c:/program files/dspace rcphil 2016-a/compiler/qnx650_463/host/win32/x86/usr/bin/../lib/gcc/powerpc-unknown-nto-qnx6.5.0/4.6.3\libgcc.a(_mul_sf.o)
                0x48056d3c                __mulsf3
 .text          0x48056f20      0x16c c:/program files/dspace rcphil 2016-a/compiler/qnx650_463/host/win32/x86/usr/bin/../lib/gcc/powerpc-unknown-nto-qnx6.5.0/4.6.3\libgcc.a(_div_sf.o)
                0x48056f20                __divsf3
 .text          0x4805708c      0x108 c:/program files/dspace rcphil 2016-a/compiler/qnx650_463/host/win32/x86/usr/bin/../lib/gcc/powerpc-unknown-nto-qnx6.5.0/4.6.3\libgcc.a(_fpcmp_parts_sf.o)
                0x4805708c                __fpcmp_parts_f
 .text          0x48057194       0x48 c:/program files/dspace rcphil 2016-a/compiler/qnx650_463/host/win32/x86/usr/bin/../lib/gcc/powerpc-unknown-nto-qnx6.5.0/4.6.3\libgcc.a(_compare_sf.o)
                0x48057194                __cmpsf2
 .text          0x480571dc       0x64 c:/program files/dspace rcphil 2016-a/compiler/qnx650_463/host/win32/x86/usr/bin/../lib/gcc/powerpc-unknown-nto-qnx6.5.0/4.6.3\libgcc.a(_eq_sf.o)
                0x480571dc                __eqsf2
 .text          0x48057240       0x64 c:/program files/dspace rcphil 2016-a/compiler/qnx650_463/host/win32/x86/usr/bin/../lib/gcc/powerpc-unknown-nto-qnx6.5.0/4.6.3\libgcc.a(_ne_sf.o)
                0x48057240                __nesf2
 .text          0x480572a4       0x64 c:/program files/dspace rcphil 2016-a/compiler/qnx650_463/host/win32/x86/usr/bin/../lib/gcc/powerpc-unknown-nto-qnx6.5.0/4.6.3\libgcc.a(_gt_sf.o)
                0x480572a4                __gtsf2
 .text          0x48057308       0x64 c:/program files/dspace rcphil 2016-a/compiler/qnx650_463/host/win32/x86/usr/bin/../lib/gcc/powerpc-unknown-nto-qnx6.5.0/4.6.3\libgcc.a(_ge_sf.o)
                0x48057308                __gesf2
 .text          0x4805736c       0x64 c:/program files/dspace rcphil 2016-a/compiler/qnx650_463/host/win32/x86/usr/bin/../lib/gcc/powerpc-unknown-nto-qnx6.5.0/4.6.3\libgcc.a(_lt_sf.o)
                0x4805736c                __ltsf2
 .text          0x480573d0       0x64 c:/program files/dspace rcphil 2016-a/compiler/qnx650_463/host/win32/x86/usr/bin/../lib/gcc/powerpc-unknown-nto-qnx6.5.0/4.6.3\libgcc.a(_le_sf.o)
                0x480573d0                __lesf2
 .text          0x48057434       0x5c c:/program files/dspace rcphil 2016-a/compiler/qnx650_463/host/win32/x86/usr/bin/../lib/gcc/powerpc-unknown-nto-qnx6.5.0/4.6.3\libgcc.a(_unord_sf.o)
                0x48057434                __unordsf2
 .text          0x48057490       0x94 c:/program files/dspace rcphil 2016-a/compiler/qnx650_463/host/win32/x86/usr/bin/../lib/gcc/powerpc-unknown-nto-qnx6.5.0/4.6.3\libgcc.a(_si_to_sf.o)
                0x48057490                __floatsisf
 .text          0x48057524       0xb8 c:/program files/dspace rcphil 2016-a/compiler/qnx650_463/host/win32/x86/usr/bin/../lib/gcc/powerpc-unknown-nto-qnx6.5.0/4.6.3\libgcc.a(_sf_to_si.o)
                0x48057524                __fixsfsi
 .text          0x480575dc       0x44 c:/program files/dspace rcphil 2016-a/compiler/qnx650_463/host/win32/x86/usr/bin/../lib/gcc/powerpc-unknown-nto-qnx6.5.0/4.6.3\libgcc.a(_negate_sf.o)
                0x480575dc                __negsf2
 .text          0x48057620       0x34 c:/program files/dspace rcphil 2016-a/compiler/qnx650_463/host/win32/x86/usr/bin/../lib/gcc/powerpc-unknown-nto-qnx6.5.0/4.6.3\libgcc.a(_make_sf.o)
                0x48057620                __make_fp
 .text          0x48057654       0x48 c:/program files/dspace rcphil 2016-a/compiler/qnx650_463/host/win32/x86/usr/bin/../lib/gcc/powerpc-unknown-nto-qnx6.5.0/4.6.3\libgcc.a(_sf_to_df.o)
                0x48057654                __extendsfdf2
 .text          0x4805769c        0x0 c:/program files/dspace rcphil 2016-a/compiler/qnx650_463/host/win32/x86/usr/bin/../lib/gcc/powerpc-unknown-nto-qnx6.5.0/4.6.3\libgcc.a(_thenan_sf.o)
 .text          0x4805769c        0x0 c:/program files/dspace rcphil 2016-a/compiler/qnx650_463/host/win32/x86/usr/bin/../lib/gcc/powerpc-unknown-nto-qnx6.5.0/4.6.3\libgcc.a(_sf_to_usi.o)
 .text          0x4805769c       0xd4 c:/program files/dspace rcphil 2016-a/compiler/qnx650_463/host/win32/x86/usr/bin/../lib/gcc/powerpc-unknown-nto-qnx6.5.0/4.6.3\libgcc.a(_usi_to_sf.o)
                0x4805769c                __floatunsisf
 .text          0x48057770      0x248 c:/program files/dspace rcphil 2016-a/compiler/qnx650_463/host/win32/x86/usr/bin/../lib/gcc/powerpc-unknown-nto-qnx6.5.0/4.6.3\libgcc.a(_pack_df.o)
                0x48057770                __pack_d
 .text          0x480579b8       0xe4 c:/program files/dspace rcphil 2016-a/compiler/qnx650_463/host/win32/x86/usr/bin/../lib/gcc/powerpc-unknown-nto-qnx6.5.0/4.6.3\libgcc.a(_unpack_df.o)
                0x480579b8                __unpack_d
 .text          0x48057a9c      0x440 c:/program files/dspace rcphil 2016-a/compiler/qnx650_463/host/win32/x86/usr/bin/../lib/gcc/powerpc-unknown-nto-qnx6.5.0/4.6.3\libgcc.a(_addsub_df.o)
                0x48057e30                __adddf3
                0x48057e80                __subdf3
 .text          0x48057edc      0x328 c:/program files/dspace rcphil 2016-a/compiler/qnx650_463/host/win32/x86/usr/bin/../lib/gcc/powerpc-unknown-nto-qnx6.5.0/4.6.3\libgcc.a(_mul_df.o)
                0x48057edc                __muldf3
 .text          0x48058204      0x21c c:/program files/dspace rcphil 2016-a/compiler/qnx650_463/host/win32/x86/usr/bin/../lib/gcc/powerpc-unknown-nto-qnx6.5.0/4.6.3\libgcc.a(_div_df.o)
                0x48058204                __divdf3
 .text          0x48058420      0x124 c:/program files/dspace rcphil 2016-a/compiler/qnx650_463/host/win32/x86/usr/bin/../lib/gcc/powerpc-unknown-nto-qnx6.5.0/4.6.3\libgcc.a(_fpcmp_parts_df.o)
                0x48058420                __fpcmp_parts_d
 .text          0x48058544       0x48 c:/program files/dspace rcphil 2016-a/compiler/qnx650_463/host/win32/x86/usr/bin/../lib/gcc/powerpc-unknown-nto-qnx6.5.0/4.6.3\libgcc.a(_compare_df.o)
                0x48058544                __cmpdf2
 .text          0x4805858c       0x64 c:/program files/dspace rcphil 2016-a/compiler/qnx650_463/host/win32/x86/usr/bin/../lib/gcc/powerpc-unknown-nto-qnx6.5.0/4.6.3\libgcc.a(_eq_df.o)
                0x4805858c                __eqdf2
 .text          0x480585f0       0x64 c:/program files/dspace rcphil 2016-a/compiler/qnx650_463/host/win32/x86/usr/bin/../lib/gcc/powerpc-unknown-nto-qnx6.5.0/4.6.3\libgcc.a(_ne_df.o)
                0x480585f0                __nedf2
 .text          0x48058654       0x64 c:/program files/dspace rcphil 2016-a/compiler/qnx650_463/host/win32/x86/usr/bin/../lib/gcc/powerpc-unknown-nto-qnx6.5.0/4.6.3\libgcc.a(_gt_df.o)
                0x48058654                __gtdf2
 .text          0x480586b8       0x64 c:/program files/dspace rcphil 2016-a/compiler/qnx650_463/host/win32/x86/usr/bin/../lib/gcc/powerpc-unknown-nto-qnx6.5.0/4.6.3\libgcc.a(_ge_df.o)
                0x480586b8                __gedf2
 .text          0x4805871c       0x64 c:/program files/dspace rcphil 2016-a/compiler/qnx650_463/host/win32/x86/usr/bin/../lib/gcc/powerpc-unknown-nto-qnx6.5.0/4.6.3\libgcc.a(_lt_df.o)
                0x4805871c                __ltdf2
 .text          0x48058780       0x64 c:/program files/dspace rcphil 2016-a/compiler/qnx650_463/host/win32/x86/usr/bin/../lib/gcc/powerpc-unknown-nto-qnx6.5.0/4.6.3\libgcc.a(_le_df.o)
                0x48058780                __ledf2
 .text          0x480587e4       0x5c c:/program files/dspace rcphil 2016-a/compiler/qnx650_463/host/win32/x86/usr/bin/../lib/gcc/powerpc-unknown-nto-qnx6.5.0/4.6.3\libgcc.a(_unord_df.o)
                0x480587e4                __unorddf2
 .text          0x48058840       0xc4 c:/program files/dspace rcphil 2016-a/compiler/qnx650_463/host/win32/x86/usr/bin/../lib/gcc/powerpc-unknown-nto-qnx6.5.0/4.6.3\libgcc.a(_si_to_df.o)
                0x48058840                __floatsidf
 .text          0x48058904       0xe0 c:/program files/dspace rcphil 2016-a/compiler/qnx650_463/host/win32/x86/usr/bin/../lib/gcc/powerpc-unknown-nto-qnx6.5.0/4.6.3\libgcc.a(_df_to_si.o)
                0x48058904                __fixdfsi
 .text          0x480589e4       0x44 c:/program files/dspace rcphil 2016-a/compiler/qnx650_463/host/win32/x86/usr/bin/../lib/gcc/powerpc-unknown-nto-qnx6.5.0/4.6.3\libgcc.a(_negate_df.o)
                0x480589e4                __negdf2
 .text          0x48058a28       0x38 c:/program files/dspace rcphil 2016-a/compiler/qnx650_463/host/win32/x86/usr/bin/../lib/gcc/powerpc-unknown-nto-qnx6.5.0/4.6.3\libgcc.a(_make_df.o)
                0x48058a28                __make_dp
 .text          0x48058a60       0x5c c:/program files/dspace rcphil 2016-a/compiler/qnx650_463/host/win32/x86/usr/bin/../lib/gcc/powerpc-unknown-nto-qnx6.5.0/4.6.3\libgcc.a(_df_to_sf.o)
                0x48058a60                __truncdfsf2
 .text          0x48058abc        0x0 c:/program files/dspace rcphil 2016-a/compiler/qnx650_463/host/win32/x86/usr/bin/../lib/gcc/powerpc-unknown-nto-qnx6.5.0/4.6.3\libgcc.a(_thenan_df.o)
 .text          0x48058abc        0x0 c:/program files/dspace rcphil 2016-a/compiler/qnx650_463/host/win32/x86/usr/bin/../lib/gcc/powerpc-unknown-nto-qnx6.5.0/4.6.3\libgcc.a(_df_to_usi.o)
 .text          0x48058abc      0x124 c:/program files/dspace rcphil 2016-a/compiler/qnx650_463/host/win32/x86/usr/bin/../lib/gcc/powerpc-unknown-nto-qnx6.5.0/4.6.3\libgcc.a(_usi_to_df.o)
                0x48058abc                __floatunsidf
 .text          0x48058be0       0x8c c:/program files/dspace rcphil 2016-a/compiler/qnx650_463/host/win32/x86/usr/bin/../lib/gcc/powerpc-unknown-nto-qnx6.5.0/4.6.3\libgcc.a(tramp.o)
                0x48058c08                __trampoline_setup
 .text          0x48058c6c       0x4c c:/program files/dspace rcphil 2016-a/compiler/qnx650_463/host/win32/x86/usr/bin/../lib/gcc/powerpc-unknown-nto-qnx6.5.0/4.6.3\libgcc.a(crtsavfpr.o)
                0x48058c6c                _savefpr_14
                0x48058c70                _savefpr_15
                0x48058c74                _savefpr_16
                0x48058c78                _savefpr_17
                0x48058c7c                _savefpr_18
                0x48058c80                _savefpr_19
                0x48058c84                _savefpr_20
                0x48058c88                _savefpr_21
                0x48058c8c                _savefpr_22
                0x48058c90                _savefpr_23
                0x48058c94                _savefpr_24
                0x48058c98                _savefpr_25
                0x48058c9c                _savefpr_26
                0x48058ca0                _savefpr_27
                0x48058ca4                _savefpr_28
                0x48058ca8                _savefpr_29
                0x48058cac                _savefpr_30
                0x48058cb0                _savefpr_31
 .text          0x48058cb8       0x4c c:/program files/dspace rcphil 2016-a/compiler/qnx650_463/host/win32/x86/usr/bin/../lib/gcc/powerpc-unknown-nto-qnx6.5.0/4.6.3\libgcc.a(crtresfpr.o)
                0x48058cb8                _restfpr_14
                0x48058cbc                _restfpr_15
                0x48058cc0                _restfpr_16
                0x48058cc4                _restfpr_17
                0x48058cc8                _restfpr_18
                0x48058ccc                _restfpr_19
                0x48058cd0                _restfpr_20
                0x48058cd4                _restfpr_21
                0x48058cd8                _restfpr_22
                0x48058cdc                _restfpr_23
                0x48058ce0                _restfpr_24
                0x48058ce4                _restfpr_25
                0x48058ce8                _restfpr_26
                0x48058cec                _restfpr_27
                0x48058cf0                _restfpr_28
                0x48058cf4                _restfpr_29
                0x48058cf8                _restfpr_30
                0x48058cfc                _restfpr_31
 .text          0x48058d04       0x4c c:/program files/dspace rcphil 2016-a/compiler/qnx650_463/host/win32/x86/usr/bin/../lib/gcc/powerpc-unknown-nto-qnx6.5.0/4.6.3\libgcc.a(crtsavgpr.o)
                0x48058d04                _savegpr_14
                0x48058d08                _savegpr_15
                0x48058d0c                _savegpr_16
                0x48058d10                _savegpr_17
                0x48058d14                _savegpr_18
                0x48058d18                _savegpr_19
                0x48058d1c                _savegpr_20
                0x48058d20                _savegpr_21
                0x48058d24                _savegpr_22
                0x48058d28                _savegpr_23
                0x48058d2c                _savegpr_24
                0x48058d30                _savegpr_25
                0x48058d34                _savegpr_26
                0x48058d38                _savegpr_27
                0x48058d3c                _savegpr_28
                0x48058d40                _savegpr_29
                0x48058d44                _savegpr_30
                0x48058d48                _savegpr_31
 .text          0x48058d50       0x4c c:/program files/dspace rcphil 2016-a/compiler/qnx650_463/host/win32/x86/usr/bin/../lib/gcc/powerpc-unknown-nto-qnx6.5.0/4.6.3\libgcc.a(crtresgpr.o)
                0x48058d50                _restgpr_14
                0x48058d54                _restgpr_15
                0x48058d58                _restgpr_16
                0x48058d5c                _restgpr_17
                0x48058d60                _restgpr_18
                0x48058d64                _restgpr_19
                0x48058d68                _restgpr_20
                0x48058d6c                _restgpr_21
                0x48058d70                _restgpr_22
                0x48058d74                _restgpr_23
                0x48058d78                _restgpr_24
                0x48058d7c                _restgpr_25
                0x48058d80                _restgpr_26
                0x48058d84                _restgpr_27
                0x48058d88                _restgpr_28
                0x48058d8c                _restgpr_29
                0x48058d90                _restgpr_30
                0x48058d94                _restgpr_31
 .text          0x48058d9c       0x58 c:/program files/dspace rcphil 2016-a/compiler/qnx650_463/host/win32/x86/usr/bin/../lib/gcc/powerpc-unknown-nto-qnx6.5.0/4.6.3\libgcc.a(crtresxfpr.o)
                0x48058d9c                _restfpr_14_x
                0x48058da0                _restfpr_15_x
                0x48058da4                _restfpr_16_x
                0x48058da8                _restfpr_17_x
                0x48058dac                _restfpr_18_x
                0x48058db0                _restfpr_19_x
                0x48058db4                _restfpr_20_x
                0x48058db8                _restfpr_21_x
                0x48058dbc                _restfpr_22_x
                0x48058dc0                _restfpr_23_x
                0x48058dc4                _restfpr_24_x
                0x48058dc8                _restfpr_25_x
                0x48058dcc                _restfpr_26_x
                0x48058dd0                _restfpr_27_x
                0x48058dd4                _restfpr_28_x
                0x48058dd8                _restfpr_29_x
                0x48058ddc                _restfpr_30_x
                0x48058de0                _restfpr_31_x
 .text          0x48058df4       0x58 c:/program files/dspace rcphil 2016-a/compiler/qnx650_463/host/win32/x86/usr/bin/../lib/gcc/powerpc-unknown-nto-qnx6.5.0/4.6.3\libgcc.a(crtresxgpr.o)
                0x48058df4                _restgpr_14_x
                0x48058df8                _restgpr_15_x
                0x48058dfc                _restgpr_16_x
                0x48058e00                _restgpr_17_x
                0x48058e04                _restgpr_18_x
                0x48058e08                _restgpr_19_x
                0x48058e0c                _restgpr_20_x
                0x48058e10                _restgpr_21_x
                0x48058e14                _restgpr_22_x
                0x48058e18                _restgpr_23_x
                0x48058e1c                _restgpr_24_x
                0x48058e20                _restgpr_25_x
                0x48058e24                _restgpr_26_x
                0x48058e28                _restgpr_27_x
                0x48058e2c                _restgpr_28_x
                0x48058e30                _restgpr_29_x
                0x48058e34                _restgpr_30_x
                0x48058e38                _restgpr_31_x
 .text          0x48058e4c        0x0 c:/program files/dspace rcphil 2016-a/compiler/qnx650_463/host/win32/x86/usr/bin/../lib/gcc/powerpc-unknown-nto-qnx6.5.0/4.6.3\libgcc.a(e500crtres32gpr.o)
 .text          0x48058e4c        0x0 c:/program files/dspace rcphil 2016-a/compiler/qnx650_463/host/win32/x86/usr/bin/../lib/gcc/powerpc-unknown-nto-qnx6.5.0/4.6.3\libgcc.a(e500crtres64gpr.o)
 .text          0x48058e4c        0x0 c:/program files/dspace rcphil 2016-a/compiler/qnx650_463/host/win32/x86/usr/bin/../lib/gcc/powerpc-unknown-nto-qnx6.5.0/4.6.3\libgcc.a(e500crtres64gprctr.o)
 .text          0x48058e4c        0x0 c:/program files/dspace rcphil 2016-a/compiler/qnx650_463/host/win32/x86/usr/bin/../lib/gcc/powerpc-unknown-nto-qnx6.5.0/4.6.3\libgcc.a(e500crtrest32gpr.o)
 .text          0x48058e4c        0x0 c:/program files/dspace rcphil 2016-a/compiler/qnx650_463/host/win32/x86/usr/bin/../lib/gcc/powerpc-unknown-nto-qnx6.5.0/4.6.3\libgcc.a(e500crtrest64gpr.o)
 .text          0x48058e4c        0x0 c:/program files/dspace rcphil 2016-a/compiler/qnx650_463/host/win32/x86/usr/bin/../lib/gcc/powerpc-unknown-nto-qnx6.5.0/4.6.3\libgcc.a(e500crtresx32gpr.o)
 .text          0x48058e4c        0x0 c:/program files/dspace rcphil 2016-a/compiler/qnx650_463/host/win32/x86/usr/bin/../lib/gcc/powerpc-unknown-nto-qnx6.5.0/4.6.3\libgcc.a(e500crtresx64gpr.o)
 .text          0x48058e4c        0x0 c:/program files/dspace rcphil 2016-a/compiler/qnx650_463/host/win32/x86/usr/bin/../lib/gcc/powerpc-unknown-nto-qnx6.5.0/4.6.3\libgcc.a(e500crtsav32gpr.o)
 .text          0x48058e4c        0x0 c:/program files/dspace rcphil 2016-a/compiler/qnx650_463/host/win32/x86/usr/bin/../lib/gcc/powerpc-unknown-nto-qnx6.5.0/4.6.3\libgcc.a(e500crtsav64gpr.o)
 .text          0x48058e4c        0x0 c:/program files/dspace rcphil 2016-a/compiler/qnx650_463/host/win32/x86/usr/bin/../lib/gcc/powerpc-unknown-nto-qnx6.5.0/4.6.3\libgcc.a(e500crtsav64gprctr.o)
 .text          0x48058e4c        0x0 c:/program files/dspace rcphil 2016-a/compiler/qnx650_463/host/win32/x86/usr/bin/../lib/gcc/powerpc-unknown-nto-qnx6.5.0/4.6.3\libgcc.a(e500crtsavg32gpr.o)
 .text          0x48058e4c        0x0 c:/program files/dspace rcphil 2016-a/compiler/qnx650_463/host/win32/x86/usr/bin/../lib/gcc/powerpc-unknown-nto-qnx6.5.0/4.6.3\libgcc.a(e500crtsavg64gpr.o)
 .text          0x48058e4c        0x0 c:/program files/dspace rcphil 2016-a/compiler/qnx650_463/host/win32/x86/usr/bin/../lib/gcc/powerpc-unknown-nto-qnx6.5.0/4.6.3\libgcc.a(e500crtsavg64gprctr.o)
 .text          0x48058e4c     0x3250 c:/program files/dspace rcphil 2016-a/compiler/qnx650_463/host/win32/x86/usr/bin/../lib/gcc/powerpc-unknown-nto-qnx6.5.0/4.6.3\libgcc.a(unwind-dw2.o)
                0x4805b3ac                _Unwind_GetGR
                0x4805b420                _Unwind_GetCFA
                0x4805b428                _Unwind_SetGR
                0x4805b4b0                _Unwind_GetIP
                0x4805b4b8                _Unwind_GetIPInfo
                0x4805b4cc                _Unwind_SetIP
                0x4805b4d4                _Unwind_GetLanguageSpecificData
                0x4805b4dc                _Unwind_GetRegionStart
                0x4805b4e4                _Unwind_FindEnclosingFunction
                0x4805b51c                _Unwind_GetDataRelBase
                0x4805b524                _Unwind_GetTextRelBase
                0x4805b52c                __frame_state_for
                0x4805b648                _Unwind_RaiseException
                0x4805b8cc                _Unwind_ForcedUnwind
                0x4805babc                _Unwind_Resume
                0x4805bcac                _Unwind_Resume_or_Rethrow
                0x4805bea0                _Unwind_DeleteException
                0x4805bed8                _Unwind_Backtrace
 .text          0x4805c09c     0x1924 c:/program files/dspace rcphil 2016-a/compiler/qnx650_463/host/win32/x86/usr/bin/../lib/gcc/powerpc-unknown-nto-qnx6.5.0/4.6.3\libgcc.a(unwind-dw2-fde.o)
                0x4805d488                __register_frame_info_bases
                0x4805d510                __register_frame_info
                0x4805d51c                __register_frame
                0x4805d574                __register_frame_info_table_bases
                0x4805d5ec                __register_frame_info_table
                0x4805d5f8                __register_frame_table
                0x4805d630                __deregister_frame_info_bases
                0x4805d774                __deregister_frame_info
                0x4805d778                __deregister_frame
                0x4805d7a8                _Unwind_Find_FDE
 .text          0x4805d9c0        0x0 c:/program files/dspace rcphil 2016-a/compiler/qnx650_463/host/win32/x86/usr/bin/../lib/gcc/powerpc-unknown-nto-qnx6.5.0/4.6.3\libgcc.a(unwind-sjlj.o)
 .text          0x4805d9c0      0x5a0 c:/program files/dspace rcphil 2016-a/compiler/qnx650_463/host/win32/x86/usr/bin/../lib/gcc/powerpc-unknown-nto-qnx6.5.0/4.6.3\libgcc.a(unwind-c.o)
                0x4805db40                __gcc_personality_v0
 .text          0x4805df60      0x2f8 c:/program files/dspace rcphil 2016-a/compiler/qnx650_463/host/win32/x86/usr/bin/../lib/gcc/powerpc-unknown-nto-qnx6.5.0/4.6.3\libgcc.a(emutls.o)
                0x4805e01c                __emutls_get_address
                0x4805e214                __emutls_register_common
 .text          0x4805e258       0x98 c:/program files/dspace rcphil 2016-a/compiler/qnx650_463/host/win32/x86/usr/bin/../lib/gcc/powerpc-unknown-nto-qnx6.5.0/4.6.3/crtend.o
 .text          0x4805e2f0        0x0 C:\Program Files\dSPACE RCPHIL 2016-A\Compiler\QNX650_463\target\qnx6/ppcbe/lib/crtn.o
 *(.gnu.warning)
 *(.glink)
 .glink         0x00000000        0x0 C:\Program Files\dSPACE RCPHIL 2016-A\Compiler\QNX650_463\target\qnx6/ppcbe/lib/crt1.o

.fini           0x4805e2f0       0x20
 *(.fini)
 .fini          0x4805e2f0        0xc C:\Program Files\dSPACE RCPHIL 2016-A\Compiler\QNX650_463\target\qnx6/ppcbe/lib/crti.o
                0x4805e2f0                _fini
 .fini          0x4805e2fc        0x4 c:/program files/dspace rcphil 2016-a/compiler/qnx650_463/host/win32/x86/usr/bin/../lib/gcc/powerpc-unknown-nto-qnx6.5.0/4.6.3/crtbegin.o
 .fini          0x4805e300       0x10 C:\Program Files\dSPACE RCPHIL 2016-A\Compiler\QNX650_463\target\qnx6/ppcbe/lib/crtn.o
                0x4805e310                PROVIDE (__etext, .)
                0x4805e310                PROVIDE (_etext, .)
                0x4805e310                PROVIDE (etext, .)

.rodata         0x4805e310     0x1b7c
 *(.rodata .rodata.* .gnu.linkonce.r.*)
 .rodata        0x4805e310       0x38 SystemFunc.o07
 .rodata.cst8   0x4805e348       0x38 HandFunc.o07
 .rodata.cst4   0x4805e380        0x4 WAMFunc.o07
 *fill*         0x4805e384        0x4 00
 .rodata.cst8   0x4805e388       0x50 WAMFunc.o07
                                 0x58 (size before relaxing)
 .rodata.cst8   0x4805e3d8       0x38 AVSFunc.o07
 .rodata.str1.4
                0x4805e410       0xad AVSFunc.o07
 *fill*         0x4805e4bd        0x3 00
 .rodata        0x4805e4c0       0x38 HandApp.o07
                0x4805e4d0                g_cube_d
                0x4805e4d8                g_Lw0
                0x4805e4e0                r
                0x4805e4e8                Lb
                0x4805e4f0                table_h
 .rodata.cst8   0x4805e4f8      0x310 HandApp.o07
                                0x350 (size before relaxing)
 .rodata        0x4805e808       0x28 WAMApp.o07
 .rodata.cst4   0x4805e830        0x4 WAMApp.o07
 *fill*         0x4805e834        0x4 00
 .rodata.cst8   0x4805e838        0x8 WAMApp.o07
                                 0x10 (size before relaxing)
 .rodata        0x4805e840       0x28 WAM2App.o07
 .rodata.cst8   0x4805e868       0x60 WAM2App.o07
                                 0xc0 (size before relaxing)
 .rodata.cst8   0x4805e8c8       0x10 AVSApp.o07
                                 0x20 (size before relaxing)
 .rodata.cst8   0x4805e8d8       0x30 XYZstageApp.o07
                                 0x40 (size before relaxing)
 .rodata.cst8   0x00000000       0x10 pmatrix.o07
 .rodata.str1.4
                0x4805e908       0x22 pmatrix.o07
 .rodata.cst8   0x00000000       0x10 homoMat.o07
 *fill*         0x4805e92a        0x2 00
 .rodata.str1.4
                0x4805e92c        0xe homoMat.o07
                                 0x16 (size before relaxing)
 *fill*         0x4805e93a        0x6 00
 .rodata.cst8   0x4805e940        0x8 Kalman.o07
                                 0x18 (size before relaxing)
 .rodata.cst4   0x4805e948        0x4 Predict3D.o07
                                  0x8 (size before relaxing)
 *fill*         0x4805e94c        0x4 00
 .rodata.cst8   0x4805e950        0x8 Predict3D.o07
 .rodata.cst8   0x00000000        0x8 throwJnt2armJnt.o07
 .rodata.cst8   0x4805e958        0x8 TaskSet.o07
                                 0x10 (size before relaxing)
 .rodata        0x4805e960       0xb0 handEnc2JntAng.o07
 .rodata.cst8   0x4805ea10        0x8 handEnc2JntAng.o07
                                 0x10 (size before relaxing)
 .rodata        0x4805ea18       0x74 rtiethernetdecode.o07
 .rodata.cst4   0x00000000        0x4 rtiethernetdecode.o07
 *fill*         0x4805ea8c        0x4 00
 .rodata.cst8   0x4805ea90       0x10 rtiethernetdecode.o07
                                 0x20 (size before relaxing)
 .rodata.str1.4
                0x4805eaa0       0x8f rtiethernetdecode.o07
 .rodata.cst4   0x00000000        0x4 handTraj.o07
 *fill*         0x4805eb2f        0x1 00
 .rodata.cst8   0x4805eb30        0x8 handTraj.o07
                                 0x58 (size before relaxing)
 .rodata.cst8   0x4805eb38        0x8 handJntAngLimit.o07
                                 0x38 (size before relaxing)
 .rodata        0x4805eb40       0x58 handCtrl.o07
 .rodata.cst8   0x4805eb98       0x40 handCtrl.o07
                                 0x48 (size before relaxing)
 .rodata.cst8   0x00000000        0x8 handJntTrq2DA.o07
 .rodata.cst8   0x00000000        0x8 handDALimit.o07
 .rodata        0x4805ebd8       0x74 rtiethernetencode.o07
 .rodata.cst8   0x00000000       0x18 rtiethernetencode.o07
 .rodata.str1.4
                0x00000000       0x8f rtiethernetencode.o07
 *fill*         0x4805ec4c        0x4 00
 .rodata        0x4805ec50       0x30 XYZstageTraj.o07
                0x4805ec50                xyz_init_jnt_pos
                0x4805ec68                xyz_end_jnt_pos
 .rodata.cst4   0x00000000        0x4 XYZstageTraj.o07
 .rodata.cst8   0x00000000       0x50 XYZstageTraj.o07
 .rodata.cst8   0x00000000       0x10 XYZstageAngLimit.o07
 .rodata.cst8   0x4805ec80       0x10 XYZstageEnc2JntAng.o07
                                 0x18 (size before relaxing)
 .rodata.cst8   0x00000000        0x8 XYZstageCtrl.o07
 .rodata.cst8   0x00000000        0x8 XYZstageTrq2DA.o07
 .rodata.cst8   0x4805ec90        0x8 XYZstageDALimit.o07
                                 0x18 (size before relaxing)
 .rodata.cst8   0x00000000        0x8 SystemSet.o07
 .rodata        0x4805ec98        0xc base.o07
                0x4805ec98                base_RGND
                0x4805eca0                base_M
 *fill*         0x4805eca4        0x4 00
 .rodata.cst8   0x4805eca8        0x8 base.o07
                                 0x20 (size before relaxing)
 .rodata.str1.4
                0x4805ecb0      0x400 base.o07
 .rodata.cst4   0x4805f0b0        0x8 rtGetInf.o07
 .rodata.cst8   0x4805f0b8       0x10 rtGetInf.o07
 .rodata        0x4805f0c8       0x13 rt_i32zcfcn.o07
 .rodata.cst4   0x00000000        0x4 rt_matrx.o07
 *fill*         0x4805f0db        0x5 00
 .rodata.cst8   0x4805f0e0        0x8 rt_matrx.o07
                                 0x28 (size before relaxing)
 .rodata.str1.4
                0x4805f0e8        0xf rt_printf.o07
 *fill*         0x4805f0f7        0x1 00
 .rodata        0x4805f0f8        0xc rti_sim_engine.o07
                0x4805f0f8                rtiDataSetStorageEnabled
                0x4805f0fc                p_dsts_sum_of_reset_time
                0x4805f100                p_msg_last_error_no
 .rodata.cst8   0x00000000       0x10 rti_sim_engine.o07
 .rodata.str1.4
                0x4805f104      0x3c1 rti_sim_engine.o07
 .rodata.cst8   0x00000000       0x10 rt_sim.o07
 *fill*         0x4805f4c5        0x3 00
 .rodata.str1.4
                0x4805f4c8       0x71 rt_sim.o07
 *fill*         0x4805f539        0x3 00
 .rodata.str1.4
                0x4805f53c       0x70 rti_assert.o07
                                 0x6d (size before relaxing)
 *fill*         0x4805f5ac        0x4 00
 .rodata        0x4805f5b0       0x30 C:\Program Files\dSPACE RCPHIL 2016-A\DS1007\Lib\libm_fastpow.a(e_pow.o)
 .rodata.cst4   0x4805f5e0        0x8 C:\Program Files\dSPACE RCPHIL 2016-A\DS1007\Lib\libm_fastpow.a(e_pow.o)
 .rodata.cst8   0x4805f5e8       0xa0 C:\Program Files\dSPACE RCPHIL 2016-A\DS1007\Lib\libm_fastpow.a(e_pow.o)
                                 0xe8 (size before relaxing)
 .rodata.cst8   0x4805f688       0x30 C:\Program Files\dSPACE RCPHIL 2016-A\DS1007\Lib\libm_fastpow.a(s_scalbn.o)
 .rodata        0x4805f6b8      0x100 c:/program files/dspace rcphil 2016-a/compiler/qnx650_463/host/win32/x86/usr/bin/../lib/gcc/powerpc-unknown-nto-qnx6.5.0/4.6.3\libgcc.a(_clz.o)
                0x4805f6b8                __clz_tab
 .rodata        0x4805f7b8      0x100 c:/program files/dspace rcphil 2016-a/compiler/qnx650_463/host/win32/x86/usr/bin/../lib/gcc/powerpc-unknown-nto-qnx6.5.0/4.6.3\libgcc.a(_popcount_tab.o)
                0x4805f7b8                __popcount_tab
 .rodata.cst4   0x4805f8b8        0x4 c:/program files/dspace rcphil 2016-a/compiler/qnx650_463/host/win32/x86/usr/bin/../lib/gcc/powerpc-unknown-nto-qnx6.5.0/4.6.3\libgcc.a(_powisf2.o)
 .rodata.cst4   0x00000000        0x4 c:/program files/dspace rcphil 2016-a/compiler/qnx650_463/host/win32/x86/usr/bin/../lib/gcc/powerpc-unknown-nto-qnx6.5.0/4.6.3\libgcc.a(_powidf2.o)
 .rodata.cst4   0x4805f8bc        0xc c:/program files/dspace rcphil 2016-a/compiler/qnx650_463/host/win32/x86/usr/bin/../lib/gcc/powerpc-unknown-nto-qnx6.5.0/4.6.3\libgcc.a(_mulsc3.o)
                                 0x14 (size before relaxing)
 .rodata.cst4   0x00000000       0x10 c:/program files/dspace rcphil 2016-a/compiler/qnx650_463/host/win32/x86/usr/bin/../lib/gcc/powerpc-unknown-nto-qnx6.5.0/4.6.3\libgcc.a(_muldc3.o)
 .rodata.cst8   0x00000000        0x8 c:/program files/dspace rcphil 2016-a/compiler/qnx650_463/host/win32/x86/usr/bin/../lib/gcc/powerpc-unknown-nto-qnx6.5.0/4.6.3\libgcc.a(_muldc3.o)
 .rodata.cst4   0x00000000       0x10 c:/program files/dspace rcphil 2016-a/compiler/qnx650_463/host/win32/x86/usr/bin/../lib/gcc/powerpc-unknown-nto-qnx6.5.0/4.6.3\libgcc.a(_divsc3.o)
 .rodata.cst4   0x00000000        0xc c:/program files/dspace rcphil 2016-a/compiler/qnx650_463/host/win32/x86/usr/bin/../lib/gcc/powerpc-unknown-nto-qnx6.5.0/4.6.3\libgcc.a(_divdc3.o)
 .rodata.cst8   0x00000000        0x8 c:/program files/dspace rcphil 2016-a/compiler/qnx650_463/host/win32/x86/usr/bin/../lib/gcc/powerpc-unknown-nto-qnx6.5.0/4.6.3\libgcc.a(_divdc3.o)
 .rodata.cst4   0x4805f8c8        0x4 c:/program files/dspace rcphil 2016-a/compiler/qnx650_463/host/win32/x86/usr/bin/../lib/gcc/powerpc-unknown-nto-qnx6.5.0/4.6.3\libgcc.a(_fixunssfsi.o)
 .rodata.cst4   0x00000000        0x4 c:/program files/dspace rcphil 2016-a/compiler/qnx650_463/host/win32/x86/usr/bin/../lib/gcc/powerpc-unknown-nto-qnx6.5.0/4.6.3\libgcc.a(_fixunsdfsi.o)
 .rodata.cst4   0x00000000        0x4 c:/program files/dspace rcphil 2016-a/compiler/qnx650_463/host/win32/x86/usr/bin/../lib/gcc/powerpc-unknown-nto-qnx6.5.0/4.6.3\libgcc.a(_fixsfdi.o)
 .rodata.cst8   0x00000000        0x8 c:/program files/dspace rcphil 2016-a/compiler/qnx650_463/host/win32/x86/usr/bin/../lib/gcc/powerpc-unknown-nto-qnx6.5.0/4.6.3\libgcc.a(_fixdfdi.o)
 .rodata.cst4   0x4805f8cc        0xc c:/program files/dspace rcphil 2016-a/compiler/qnx650_463/host/win32/x86/usr/bin/../lib/gcc/powerpc-unknown-nto-qnx6.5.0/4.6.3\libgcc.a(_fixunssfdi.o)
                                 0x10 (size before relaxing)
 .rodata.cst4   0x00000000       0x10 c:/program files/dspace rcphil 2016-a/compiler/qnx650_463/host/win32/x86/usr/bin/../lib/gcc/powerpc-unknown-nto-qnx6.5.0/4.6.3\libgcc.a(_fixunsdfdi.o)
 .rodata.cst4   0x00000000        0xc c:/program files/dspace rcphil 2016-a/compiler/qnx650_463/host/win32/x86/usr/bin/../lib/gcc/powerpc-unknown-nto-qnx6.5.0/4.6.3\libgcc.a(_floatdisf.o)
 .rodata.cst4   0x00000000        0xc c:/program files/dspace rcphil 2016-a/compiler/qnx650_463/host/win32/x86/usr/bin/../lib/gcc/powerpc-unknown-nto-qnx6.5.0/4.6.3\libgcc.a(_floatdidf.o)
 .rodata.cst4   0x00000000        0x8 c:/program files/dspace rcphil 2016-a/compiler/qnx650_463/host/win32/x86/usr/bin/../lib/gcc/powerpc-unknown-nto-qnx6.5.0/4.6.3\libgcc.a(_floatundisf.o)
 .rodata.cst4   0x00000000        0x8 c:/program files/dspace rcphil 2016-a/compiler/qnx650_463/host/win32/x86/usr/bin/../lib/gcc/powerpc-unknown-nto-qnx6.5.0/4.6.3\libgcc.a(_floatundidf.o)
 .rodata.cst4   0x4805f8d8        0x4 c:/program files/dspace rcphil 2016-a/compiler/qnx650_463/host/win32/x86/usr/bin/../lib/gcc/powerpc-unknown-nto-qnx6.5.0/4.6.3\libgcc.a(_si_to_sf.o)
 .rodata        0x4805f8dc       0x10 c:/program files/dspace rcphil 2016-a/compiler/qnx650_463/host/win32/x86/usr/bin/../lib/gcc/powerpc-unknown-nto-qnx6.5.0/4.6.3\libgcc.a(_thenan_sf.o)
                0x4805f8dc                __thenan_sf
 .rodata.cst4   0x00000000        0x4 c:/program files/dspace rcphil 2016-a/compiler/qnx650_463/host/win32/x86/usr/bin/../lib/gcc/powerpc-unknown-nto-qnx6.5.0/4.6.3\libgcc.a(_si_to_df.o)
 *fill*         0x4805f8ec        0x4 00
 .rodata        0x4805f8f0       0x18 c:/program files/dspace rcphil 2016-a/compiler/qnx650_463/host/win32/x86/usr/bin/../lib/gcc/powerpc-unknown-nto-qnx6.5.0/4.6.3\libgcc.a(_thenan_df.o)
                0x4805f8f0                __thenan_df
 .rodata        0x4805f908      0x51c c:/program files/dspace rcphil 2016-a/compiler/qnx650_463/host/win32/x86/usr/bin/../lib/gcc/powerpc-unknown-nto-qnx6.5.0/4.6.3\libgcc.a(unwind-dw2.o)
 .rodata        0x4805fe24       0x34 c:/program files/dspace rcphil 2016-a/compiler/qnx650_463/host/win32/x86/usr/bin/../lib/gcc/powerpc-unknown-nto-qnx6.5.0/4.6.3\libgcc.a(unwind-dw2-fde.o)
 .rodata        0x4805fe58       0x34 c:/program files/dspace rcphil 2016-a/compiler/qnx650_463/host/win32/x86/usr/bin/../lib/gcc/powerpc-unknown-nto-qnx6.5.0/4.6.3\libgcc.a(unwind-c.o)

.rodata1
 *(.rodata1)

.sdata2         0x4805fe8c        0x0
                0x00008000                PROVIDE (_SDA2_BASE_, 0x8000)
 *(.sdata2 .sdata2.* .gnu.linkonce.s2.*)

.sbss2
 *(.sbss2 .sbss2.* .gnu.linkonce.sb2.*)

.eh_frame_hdr   0x4805fe8c      0x254
 *(.eh_frame_hdr)
 .eh_frame_hdr  0x4805fe8c      0x254 c:/program files/dspace rcphil 2016-a/compiler/qnx650_463/host/win32/x86/usr/bin/../lib/gcc/powerpc-unknown-nto-qnx6.5.0/4.6.3\libgcc.a(_fixsfdi.o)

.eh_frame       0x480600e0      0xda4
 *(.eh_frame)
 .eh_frame      0x00000000        0x0 C:\Program Files\dSPACE RCPHIL 2016-A\Compiler\QNX650_463\target\qnx6/ppcbe/lib/crt1.o
 .eh_frame      0x480600e0        0x0 c:/program files/dspace rcphil 2016-a/compiler/qnx650_463/host/win32/x86/usr/bin/../lib/gcc/powerpc-unknown-nto-qnx6.5.0/4.6.3/crtbegin.o
 .eh_frame      0x480600e0       0x30 c:/program files/dspace rcphil 2016-a/compiler/qnx650_463/host/win32/x86/usr/bin/../lib/gcc/powerpc-unknown-nto-qnx6.5.0/4.6.3\libgcc.a(_fixsfdi.o)
 .eh_frame      0x48060110       0x20 c:/program files/dspace rcphil 2016-a/compiler/qnx650_463/host/win32/x86/usr/bin/../lib/gcc/powerpc-unknown-nto-qnx6.5.0/4.6.3\libgcc.a(_fixdfdi.o)
                                 0x30 (size before relaxing)
 .eh_frame      0x48060130       0x20 c:/program files/dspace rcphil 2016-a/compiler/qnx650_463/host/win32/x86/usr/bin/../lib/gcc/powerpc-unknown-nto-qnx6.5.0/4.6.3\libgcc.a(_eprintf.o)
                                 0x30 (size before relaxing)
 .eh_frame      0x48060150       0x28 c:/program files/dspace rcphil 2016-a/compiler/qnx650_463/host/win32/x86/usr/bin/../lib/gcc/powerpc-unknown-nto-qnx6.5.0/4.6.3\libgcc.a(_divdi3.o)
                                 0x38 (size before relaxing)
 .eh_frame      0x48060178       0x28 c:/program files/dspace rcphil 2016-a/compiler/qnx650_463/host/win32/x86/usr/bin/../lib/gcc/powerpc-unknown-nto-qnx6.5.0/4.6.3\libgcc.a(_moddi3.o)
                                 0x38 (size before relaxing)
 .eh_frame      0x480601a0       0x38 c:/program files/dspace rcphil 2016-a/compiler/qnx650_463/host/win32/x86/usr/bin/../lib/gcc/powerpc-unknown-nto-qnx6.5.0/4.6.3\libgcc.a(_udivdi3.o)
                                 0x48 (size before relaxing)
 .eh_frame      0x480601d8       0x3c c:/program files/dspace rcphil 2016-a/compiler/qnx650_463/host/win32/x86/usr/bin/../lib/gcc/powerpc-unknown-nto-qnx6.5.0/4.6.3\libgcc.a(_umoddi3.o)
                                 0x4c (size before relaxing)
 .eh_frame      0x48060214       0x10 c:/program files/dspace rcphil 2016-a/compiler/qnx650_463/host/win32/x86/usr/bin/../lib/gcc/powerpc-unknown-nto-qnx6.5.0/4.6.3\libgcc.a(_udiv_w_sdiv.o)
                                 0x20 (size before relaxing)
 .eh_frame      0x48060224       0x48 c:/program files/dspace rcphil 2016-a/compiler/qnx650_463/host/win32/x86/usr/bin/../lib/gcc/powerpc-unknown-nto-qnx6.5.0/4.6.3\libgcc.a(_udivmoddi4.o)
                                 0x58 (size before relaxing)
 .eh_frame      0x4806026c       0x38 c:/program files/dspace rcphil 2016-a/compiler/qnx650_463/host/win32/x86/usr/bin/../lib/gcc/powerpc-unknown-nto-qnx6.5.0/4.6.3\libgcc.a(_addsub_sf.o)
                                 0x48 (size before relaxing)
 .eh_frame      0x480602a4       0x2c c:/program files/dspace rcphil 2016-a/compiler/qnx650_463/host/win32/x86/usr/bin/../lib/gcc/powerpc-unknown-nto-qnx6.5.0/4.6.3\libgcc.a(_mul_sf.o)
                                 0x3c (size before relaxing)
 .eh_frame      0x480602d0       0x24 c:/program files/dspace rcphil 2016-a/compiler/qnx650_463/host/win32/x86/usr/bin/../lib/gcc/powerpc-unknown-nto-qnx6.5.0/4.6.3\libgcc.a(_div_sf.o)
                                 0x34 (size before relaxing)
 .eh_frame      0x480602f4       0x1c c:/program files/dspace rcphil 2016-a/compiler/qnx650_463/host/win32/x86/usr/bin/../lib/gcc/powerpc-unknown-nto-qnx6.5.0/4.6.3\libgcc.a(_compare_sf.o)
                                 0x2c (size before relaxing)
 .eh_frame      0x48060310       0x1c c:/program files/dspace rcphil 2016-a/compiler/qnx650_463/host/win32/x86/usr/bin/../lib/gcc/powerpc-unknown-nto-qnx6.5.0/4.6.3\libgcc.a(_eq_sf.o)
                                 0x2c (size before relaxing)
 .eh_frame      0x4806032c       0x1c c:/program files/dspace rcphil 2016-a/compiler/qnx650_463/host/win32/x86/usr/bin/../lib/gcc/powerpc-unknown-nto-qnx6.5.0/4.6.3\libgcc.a(_ne_sf.o)
                                 0x2c (size before relaxing)
 .eh_frame      0x48060348       0x1c c:/program files/dspace rcphil 2016-a/compiler/qnx650_463/host/win32/x86/usr/bin/../lib/gcc/powerpc-unknown-nto-qnx6.5.0/4.6.3\libgcc.a(_gt_sf.o)
                                 0x2c (size before relaxing)
 .eh_frame      0x48060364       0x1c c:/program files/dspace rcphil 2016-a/compiler/qnx650_463/host/win32/x86/usr/bin/../lib/gcc/powerpc-unknown-nto-qnx6.5.0/4.6.3\libgcc.a(_ge_sf.o)
                                 0x2c (size before relaxing)
 .eh_frame      0x48060380       0x1c c:/program files/dspace rcphil 2016-a/compiler/qnx650_463/host/win32/x86/usr/bin/../lib/gcc/powerpc-unknown-nto-qnx6.5.0/4.6.3\libgcc.a(_lt_sf.o)
                                 0x2c (size before relaxing)
 .eh_frame      0x4806039c       0x1c c:/program files/dspace rcphil 2016-a/compiler/qnx650_463/host/win32/x86/usr/bin/../lib/gcc/powerpc-unknown-nto-qnx6.5.0/4.6.3\libgcc.a(_le_sf.o)
                                 0x2c (size before relaxing)
 .eh_frame      0x480603b8       0x1c c:/program files/dspace rcphil 2016-a/compiler/qnx650_463/host/win32/x86/usr/bin/../lib/gcc/powerpc-unknown-nto-qnx6.5.0/4.6.3\libgcc.a(_unord_sf.o)
                                 0x2c (size before relaxing)
 .eh_frame      0x480603d4       0x20 c:/program files/dspace rcphil 2016-a/compiler/qnx650_463/host/win32/x86/usr/bin/../lib/gcc/powerpc-unknown-nto-qnx6.5.0/4.6.3\libgcc.a(_si_to_sf.o)
                                 0x30 (size before relaxing)
 .eh_frame      0x480603f4       0x24 c:/program files/dspace rcphil 2016-a/compiler/qnx650_463/host/win32/x86/usr/bin/../lib/gcc/powerpc-unknown-nto-qnx6.5.0/4.6.3\libgcc.a(_sf_to_si.o)
                                 0x34 (size before relaxing)
 .eh_frame      0x48060418       0x1c c:/program files/dspace rcphil 2016-a/compiler/qnx650_463/host/win32/x86/usr/bin/../lib/gcc/powerpc-unknown-nto-qnx6.5.0/4.6.3\libgcc.a(_negate_sf.o)
                                 0x2c (size before relaxing)
 .eh_frame      0x48060434       0x1c c:/program files/dspace rcphil 2016-a/compiler/qnx650_463/host/win32/x86/usr/bin/../lib/gcc/powerpc-unknown-nto-qnx6.5.0/4.6.3\libgcc.a(_make_sf.o)
                                 0x2c (size before relaxing)
 .eh_frame      0x48060450       0x1c c:/program files/dspace rcphil 2016-a/compiler/qnx650_463/host/win32/x86/usr/bin/../lib/gcc/powerpc-unknown-nto-qnx6.5.0/4.6.3\libgcc.a(_sf_to_df.o)
                                 0x2c (size before relaxing)
 .eh_frame      0x4806046c       0x28 c:/program files/dspace rcphil 2016-a/compiler/qnx650_463/host/win32/x86/usr/bin/../lib/gcc/powerpc-unknown-nto-qnx6.5.0/4.6.3\libgcc.a(_usi_to_sf.o)
                                 0x38 (size before relaxing)
 .eh_frame      0x48060494       0x38 c:/program files/dspace rcphil 2016-a/compiler/qnx650_463/host/win32/x86/usr/bin/../lib/gcc/powerpc-unknown-nto-qnx6.5.0/4.6.3\libgcc.a(_addsub_df.o)
                                 0x48 (size before relaxing)
 .eh_frame      0x480604cc       0x38 c:/program files/dspace rcphil 2016-a/compiler/qnx650_463/host/win32/x86/usr/bin/../lib/gcc/powerpc-unknown-nto-qnx6.5.0/4.6.3\libgcc.a(_mul_df.o)
                                 0x48 (size before relaxing)
 .eh_frame      0x48060504       0x34 c:/program files/dspace rcphil 2016-a/compiler/qnx650_463/host/win32/x86/usr/bin/../lib/gcc/powerpc-unknown-nto-qnx6.5.0/4.6.3\libgcc.a(_div_df.o)
                                 0x44 (size before relaxing)
 .eh_frame      0x48060538       0x1c c:/program files/dspace rcphil 2016-a/compiler/qnx650_463/host/win32/x86/usr/bin/../lib/gcc/powerpc-unknown-nto-qnx6.5.0/4.6.3\libgcc.a(_compare_df.o)
                                 0x2c (size before relaxing)
 .eh_frame      0x48060554       0x1c c:/program files/dspace rcphil 2016-a/compiler/qnx650_463/host/win32/x86/usr/bin/../lib/gcc/powerpc-unknown-nto-qnx6.5.0/4.6.3\libgcc.a(_eq_df.o)
                                 0x2c (size before relaxing)
 .eh_frame      0x48060570       0x1c c:/program files/dspace rcphil 2016-a/compiler/qnx650_463/host/win32/x86/usr/bin/../lib/gcc/powerpc-unknown-nto-qnx6.5.0/4.6.3\libgcc.a(_ne_df.o)
                                 0x2c (size before relaxing)
 .eh_frame      0x4806058c       0x1c c:/program files/dspace rcphil 2016-a/compiler/qnx650_463/host/win32/x86/usr/bin/../lib/gcc/powerpc-unknown-nto-qnx6.5.0/4.6.3\libgcc.a(_gt_df.o)
                                 0x2c (size before relaxing)
 .eh_frame      0x480605a8       0x1c c:/program files/dspace rcphil 2016-a/compiler/qnx650_463/host/win32/x86/usr/bin/../lib/gcc/powerpc-unknown-nto-qnx6.5.0/4.6.3\libgcc.a(_ge_df.o)
                                 0x2c (size before relaxing)
 .eh_frame      0x480605c4       0x1c c:/program files/dspace rcphil 2016-a/compiler/qnx650_463/host/win32/x86/usr/bin/../lib/gcc/powerpc-unknown-nto-qnx6.5.0/4.6.3\libgcc.a(_lt_df.o)
                                 0x2c (size before relaxing)
 .eh_frame      0x480605e0       0x1c c:/program files/dspace rcphil 2016-a/compiler/qnx650_463/host/win32/x86/usr/bin/../lib/gcc/powerpc-unknown-nto-qnx6.5.0/4.6.3\libgcc.a(_le_df.o)
                                 0x2c (size before relaxing)
 .eh_frame      0x480605fc       0x1c c:/program files/dspace rcphil 2016-a/compiler/qnx650_463/host/win32/x86/usr/bin/../lib/gcc/powerpc-unknown-nto-qnx6.5.0/4.6.3\libgcc.a(_unord_df.o)
                                 0x2c (size before relaxing)
 .eh_frame      0x48060618       0x20 c:/program files/dspace rcphil 2016-a/compiler/qnx650_463/host/win32/x86/usr/bin/../lib/gcc/powerpc-unknown-nto-qnx6.5.0/4.6.3\libgcc.a(_si_to_df.o)
                                 0x30 (size before relaxing)
 .eh_frame      0x48060638       0x24 c:/program files/dspace rcphil 2016-a/compiler/qnx650_463/host/win32/x86/usr/bin/../lib/gcc/powerpc-unknown-nto-qnx6.5.0/4.6.3\libgcc.a(_df_to_si.o)
                                 0x34 (size before relaxing)
 .eh_frame      0x4806065c       0x1c c:/program files/dspace rcphil 2016-a/compiler/qnx650_463/host/win32/x86/usr/bin/../lib/gcc/powerpc-unknown-nto-qnx6.5.0/4.6.3\libgcc.a(_negate_df.o)
                                 0x2c (size before relaxing)
 .eh_frame      0x48060678       0x1c c:/program files/dspace rcphil 2016-a/compiler/qnx650_463/host/win32/x86/usr/bin/../lib/gcc/powerpc-unknown-nto-qnx6.5.0/4.6.3\libgcc.a(_make_df.o)
                                 0x2c (size before relaxing)
 .eh_frame      0x48060694       0x1c c:/program files/dspace rcphil 2016-a/compiler/qnx650_463/host/win32/x86/usr/bin/../lib/gcc/powerpc-unknown-nto-qnx6.5.0/4.6.3\libgcc.a(_df_to_sf.o)
                                 0x2c (size before relaxing)
 .eh_frame      0x480606b0       0x2c c:/program files/dspace rcphil 2016-a/compiler/qnx650_463/host/win32/x86/usr/bin/../lib/gcc/powerpc-unknown-nto-qnx6.5.0/4.6.3\libgcc.a(_usi_to_df.o)
                                 0x3c (size before relaxing)
 .eh_frame      0x480606dc       0x28 c:/program files/dspace rcphil 2016-a/compiler/qnx650_463/host/win32/x86/usr/bin/../lib/gcc/powerpc-unknown-nto-qnx6.5.0/4.6.3\libgcc.a(crtsavfpr.o)
 .eh_frame      0x48060704       0x14 c:/program files/dspace rcphil 2016-a/compiler/qnx650_463/host/win32/x86/usr/bin/../lib/gcc/powerpc-unknown-nto-qnx6.5.0/4.6.3\libgcc.a(crtresfpr.o)
                                 0x28 (size before relaxing)
 .eh_frame      0x48060718       0x14 c:/program files/dspace rcphil 2016-a/compiler/qnx650_463/host/win32/x86/usr/bin/../lib/gcc/powerpc-unknown-nto-qnx6.5.0/4.6.3\libgcc.a(crtsavgpr.o)
                                 0x28 (size before relaxing)
 .eh_frame      0x4806072c       0x14 c:/program files/dspace rcphil 2016-a/compiler/qnx650_463/host/win32/x86/usr/bin/../lib/gcc/powerpc-unknown-nto-qnx6.5.0/4.6.3\libgcc.a(crtresgpr.o)
                                 0x28 (size before relaxing)
 .eh_frame      0x48060740       0x7c c:/program files/dspace rcphil 2016-a/compiler/qnx650_463/host/win32/x86/usr/bin/../lib/gcc/powerpc-unknown-nto-qnx6.5.0/4.6.3\libgcc.a(crtresxfpr.o)
 .eh_frame      0x480607bc       0x7c c:/program files/dspace rcphil 2016-a/compiler/qnx650_463/host/win32/x86/usr/bin/../lib/gcc/powerpc-unknown-nto-qnx6.5.0/4.6.3\libgcc.a(crtresxgpr.o)
 .eh_frame      0x48060838      0x44c c:/program files/dspace rcphil 2016-a/compiler/qnx650_463/host/win32/x86/usr/bin/../lib/gcc/powerpc-unknown-nto-qnx6.5.0/4.6.3\libgcc.a(unwind-dw2.o)
                                0x45c (size before relaxing)
 .eh_frame      0x48060c84      0x1a8 c:/program files/dspace rcphil 2016-a/compiler/qnx650_463/host/win32/x86/usr/bin/../lib/gcc/powerpc-unknown-nto-qnx6.5.0/4.6.3\libgcc.a(unwind-dw2-fde.o)
                                0x1b8 (size before relaxing)
 .eh_frame      0x48060e2c       0x34 c:/program files/dspace rcphil 2016-a/compiler/qnx650_463/host/win32/x86/usr/bin/../lib/gcc/powerpc-unknown-nto-qnx6.5.0/4.6.3\libgcc.a(unwind-c.o)
                                 0x44 (size before relaxing)
 .eh_frame      0x48060e60       0x20 c:/program files/dspace rcphil 2016-a/compiler/qnx650_463/host/win32/x86/usr/bin/../lib/gcc/powerpc-unknown-nto-qnx6.5.0/4.6.3\libgcc.a(emutls.o)
                                 0x30 (size before relaxing)
 .eh_frame      0x48060e80        0x4 c:/program files/dspace rcphil 2016-a/compiler/qnx650_463/host/win32/x86/usr/bin/../lib/gcc/powerpc-unknown-nto-qnx6.5.0/4.6.3/crtend.o

.gcc_except_table
 *(.gcc_except_table .gcc_except_table.*)
                0x48060e84                . = (ALIGN (0x1000) - ((0x1000 - .) & 0xfff))
                0x48061000                . = DATA_SEGMENT_ALIGN (0x1000, 0x1000)

.eh_frame
 *(.eh_frame)

.gcc_except_table
 *(.gcc_except_table .gcc_except_table.*)

.tdata
 *(.tdata .tdata.* .gnu.linkonce.td.*)

.tbss
 *(.tbss .tbss.* .gnu.linkonce.tb.*)
 *(.tcommon)

.preinit_array  0x48061000        0x0
                0x48061000                PROVIDE (__preinit_array_start, .)
 *(.preinit_array)
                0x48061000                PROVIDE (__preinit_array_end, .)

.init_array     0x48061000        0x0
                0x48061000                PROVIDE (__init_array_start, .)
 *(SORT(.init_array.*))
 *(.init_array)
                0x48061000                PROVIDE (__init_array_end, .)

.fini_array     0x48061000        0x0
                0x48061000                PROVIDE (__fini_array_start, .)
 *(.fini_array)
 *(SORT(.fini_array.*))
                0x48061000                PROVIDE (__fini_array_end, .)

.ctors          0x48061000        0x8
 *crtbegin.o(.ctors)
 .ctors         0x48061000        0x4 c:/program files/dspace rcphil 2016-a/compiler/qnx650_463/host/win32/x86/usr/bin/../lib/gcc/powerpc-unknown-nto-qnx6.5.0/4.6.3/crtbegin.o
 *crtbegin?.o(.ctors)
 *(EXCLUDE_FILE(*crtend?.o *crtend.o) .ctors)
 *(SORT(.ctors.*))
 *(.ctors)
 .ctors         0x48061004        0x4 c:/program files/dspace rcphil 2016-a/compiler/qnx650_463/host/win32/x86/usr/bin/../lib/gcc/powerpc-unknown-nto-qnx6.5.0/4.6.3/crtend.o

.dtors          0x48061008        0x8
 *crtbegin.o(.dtors)
 .dtors         0x48061008        0x4 c:/program files/dspace rcphil 2016-a/compiler/qnx650_463/host/win32/x86/usr/bin/../lib/gcc/powerpc-unknown-nto-qnx6.5.0/4.6.3/crtbegin.o
 *crtbegin?.o(.dtors)
 *(EXCLUDE_FILE(*crtend?.o *crtend.o) .dtors)
 *(SORT(.dtors.*))
 *(.dtors)
 .dtors         0x4806100c        0x4 c:/program files/dspace rcphil 2016-a/compiler/qnx650_463/host/win32/x86/usr/bin/../lib/gcc/powerpc-unknown-nto-qnx6.5.0/4.6.3/crtend.o
                0x4806100c                __DTOR_END__

.jcr            0x48061010        0x4
 *(.jcr)
 .jcr           0x48061010        0x0 c:/program files/dspace rcphil 2016-a/compiler/qnx650_463/host/win32/x86/usr/bin/../lib/gcc/powerpc-unknown-nto-qnx6.5.0/4.6.3/crtbegin.o
 .jcr           0x48061010        0x4 c:/program files/dspace rcphil 2016-a/compiler/qnx650_463/host/win32/x86/usr/bin/../lib/gcc/powerpc-unknown-nto-qnx6.5.0/4.6.3/crtend.o

.data.rel.ro
 *(.data.rel.ro.local* .gnu.linkonce.d.rel.ro.local.*)
 *(.data.rel.ro* .gnu.linkonce.d.rel.ro.*)

.fixup
 *(.fixup)

.got1
 *(.got1)

.got2
 *(.got2)

.dynamic        0x48061014      0x230
 *(.dynamic)
 .dynamic       0x48061014      0x230 C:\Program Files\dSPACE RCPHIL 2016-A\Compiler\QNX650_463\target\qnx6/ppcbe/lib/crt1.o
                0x48061014                _DYNAMIC

.got
 *(.got)
                0x48061244                . = DATA_SEGMENT_RELRO_END (., 0x0)

.plt
 *(.plt)

.data           0x48061248      0x824
 *(.data .data.* .gnu.linkonce.d.*)
 .data          0x48061248        0x0 C:\Program Files\dSPACE RCPHIL 2016-A\Compiler\QNX650_463\target\qnx6/ppcbe/lib/crt1.o
 .data          0x48061248        0x0 C:\Program Files\dSPACE RCPHIL 2016-A\Compiler\QNX650_463\target\qnx6/ppcbe/lib/crti.o
 .data          0x48061248        0x0 c:/program files/dspace rcphil 2016-a/compiler/qnx650_463/host/win32/x86/usr/bin/../lib/gcc/powerpc-unknown-nto-qnx6.5.0/4.6.3/crtbegin.o
 .data.rel      0x48061248        0x4 c:/program files/dspace rcphil 2016-a/compiler/qnx650_463/host/win32/x86/usr/bin/../lib/gcc/powerpc-unknown-nto-qnx6.5.0/4.6.3/crtbegin.o
                0x48061248                __dso_handle
 .data          0x4806124c        0x0 SystemFunc.o07
 .data          0x4806124c        0x0 HandFunc.o07
 .data          0x4806124c        0x0 WAMFunc.o07
 .data          0x4806124c        0x0 AVSFunc.o07
 *fill*         0x4806124c        0x4 00
 .data          0x48061250      0x1d0 HandApp.o07
                0x48061250                cog_write
                0x480612b8                hand_ctrl_coef
 .data          0x48061420      0x108 WAMApp.o07
 .data          0x48061528      0x108 WAM2App.o07
 .data          0x48061630      0x188 AVSApp.o07
 .data          0x480617b8       0xf8 XYZstageApp.o07
                0x480617d0                prev_jnt_pos
                0x48061848                xyz_ctrl_coef
 .data          0x480618b0        0x0 LinkHomoMat.o07
 .data          0x480618b0        0x0 vec3DRot.o07
 .data          0x480618b0        0x0 vec3DInProduct.o07
 .data          0x480618b0        0x0 pmatrix.o07
 .data          0x480618b0        0x0 homoMat.o07
 .data          0x480618b0        0x0 myMatrix.o07
 .data          0x480618b0        0x0 Vector.o07
 .data          0x480618b0        0x0 Kalman.o07
 .data          0x480618b0        0x0 Predict3D.o07
 .data          0x480618b0        0x0 throwJnt2armJnt.o07
 .data          0x480618b0        0x0 storeData.o07
 .data          0x480618b0        0x0 TaskSet.o07
 .data          0x480618b0        0x0 handEnc2JntAng.o07
 .data          0x480618b0        0x0 rtiethernetdecode.o07
 .data          0x480618b0        0x0 handTraj.o07
 .data          0x480618b0        0x0 handJntAngLimit.o07
 .data          0x480618b0        0x0 handCtrl.o07
 .data          0x480618b0        0x0 handJntTrq2DA.o07
 .data          0x480618b0        0x0 handDALimit.o07
 .data          0x480618b0        0x0 rtiethernetencode.o07
 .data          0x480618b0        0x0 XYZstageTraj.o07
 .data          0x480618b0        0x0 XYZstageAngLimit.o07
 .data          0x480618b0        0x0 XYZstageEnc2JntAng.o07
 .data          0x480618b0        0x0 XYZstageCtrl.o07
 .data          0x480618b0        0x0 XYZstageTrq2DA.o07
 .data          0x480618b0        0x0 XYZstageDALimit.o07
 .data          0x480618b0        0x0 SystemSet.o07
 .data          0x480618b0        0x0 base.o07
 .data          0x480618b0      0x180 base_data.o07
                0x480618b0                base_P
 .data          0x48061a30        0x0 base_trc_ptr.o07
 .data          0x48061a30        0x0 rtGetInf.o07
 .data          0x48061a30        0x0 rtGetNaN.o07
 .data          0x48061a30        0x0 rt_i32zcfcn.o07
 .data          0x48061a30        0x0 rt_matrx.o07
 .data          0x48061a30        0x0 rt_nonfinite.o07
 .data          0x48061a30        0x0 rt_printf.o07
 .data          0x48061a30        0x8 rti_sim_engine.o07
                0x48061a30                simState
                0x48061a34                lastSimState
 .data          0x48061a38        0x0 rti_init_c.o07
 .data          0x48061a38        0x0 rt_sim.o07
 .data          0x48061a38        0x0 rti_assert.o07
 .data          0x48061a38        0x0 C:\Program Files\dSPACE RCPHIL 2016-A\DS1007\Lib\librtversion.a(RtVersion.o)
 .data          0x48061a38        0x0 C:\Program Files\dSPACE RCPHIL 2016-A\DS1007\Lib\librtglobals.a(DsEESPort.o)
 .data.rel      0x48061a38        0xc C:\Program Files\dSPACE RCPHIL 2016-A\DS1007\Lib\librtglobals.a(DsEESPort.o)
                0x48061a38                p_xilapi_eesport_errorswitching_uint32_T
                0x48061a3c                p_xilapi_eesport_erroractivated_uint32_T
                0x48061a40                p_xilapi_eesport_activeerrorset_uint32_T
 .data          0x48061a44        0x0 C:\Program Files\dSPACE RCPHIL 2016-A\DS1007\Lib\libm_fastpow.a(w_pow.o)
 .data          0x48061a44        0x0 C:\Program Files\dSPACE RCPHIL 2016-A\DS1007\Lib\libm_fastpow.a(e_pow.o)
 .data          0x48061a44        0x0 C:\Program Files\dSPACE RCPHIL 2016-A\DS1007\Lib\libm_fastpow.a(s_scalbn.o)
 .data          0x48061a44        0x0 c:/program files/dspace rcphil 2016-a/compiler/qnx650_463/host/win32/x86/usr/bin/../lib/gcc/powerpc-unknown-nto-qnx6.5.0/4.6.3\libgcc.a(_muldi3.o)
 .data          0x48061a44        0x0 c:/program files/dspace rcphil 2016-a/compiler/qnx650_463/host/win32/x86/usr/bin/../lib/gcc/powerpc-unknown-nto-qnx6.5.0/4.6.3\libgcc.a(_negdi2.o)
 .data          0x48061a44        0x0 c:/program files/dspace rcphil 2016-a/compiler/qnx650_463/host/win32/x86/usr/bin/../lib/gcc/powerpc-unknown-nto-qnx6.5.0/4.6.3\libgcc.a(_lshrdi3.o)
 .data          0x48061a44        0x0 c:/program files/dspace rcphil 2016-a/compiler/qnx650_463/host/win32/x86/usr/bin/../lib/gcc/powerpc-unknown-nto-qnx6.5.0/4.6.3\libgcc.a(_ashldi3.o)
 .data          0x48061a44        0x0 c:/program files/dspace rcphil 2016-a/compiler/qnx650_463/host/win32/x86/usr/bin/../lib/gcc/powerpc-unknown-nto-qnx6.5.0/4.6.3\libgcc.a(_ashrdi3.o)
 .data          0x48061a44        0x0 c:/program files/dspace rcphil 2016-a/compiler/qnx650_463/host/win32/x86/usr/bin/../lib/gcc/powerpc-unknown-nto-qnx6.5.0/4.6.3\libgcc.a(_cmpdi2.o)
 .data          0x48061a44        0x0 c:/program files/dspace rcphil 2016-a/compiler/qnx650_463/host/win32/x86/usr/bin/../lib/gcc/powerpc-unknown-nto-qnx6.5.0/4.6.3\libgcc.a(_ucmpdi2.o)
 .data          0x48061a44        0x0 c:/program files/dspace rcphil 2016-a/compiler/qnx650_463/host/win32/x86/usr/bin/../lib/gcc/powerpc-unknown-nto-qnx6.5.0/4.6.3\libgcc.a(_clear_cache.o)
 .data          0x48061a44        0x0 c:/program files/dspace rcphil 2016-a/compiler/qnx650_463/host/win32/x86/usr/bin/../lib/gcc/powerpc-unknown-nto-qnx6.5.0/4.6.3\libgcc.a(_enable_execute_stack.o)
 .data          0x48061a44        0x0 c:/program files/dspace rcphil 2016-a/compiler/qnx650_463/host/win32/x86/usr/bin/../lib/gcc/powerpc-unknown-nto-qnx6.5.0/4.6.3\libgcc.a(_trampoline.o)
 .data          0x48061a44        0x0 c:/program files/dspace rcphil 2016-a/compiler/qnx650_463/host/win32/x86/usr/bin/../lib/gcc/powerpc-unknown-nto-qnx6.5.0/4.6.3\libgcc.a(__main.o)
 .data          0x48061a44        0x0 c:/program files/dspace rcphil 2016-a/compiler/qnx650_463/host/win32/x86/usr/bin/../lib/gcc/powerpc-unknown-nto-qnx6.5.0/4.6.3\libgcc.a(_absvsi2.o)
 .data          0x48061a44        0x0 c:/program files/dspace rcphil 2016-a/compiler/qnx650_463/host/win32/x86/usr/bin/../lib/gcc/powerpc-unknown-nto-qnx6.5.0/4.6.3\libgcc.a(_absvdi2.o)
 .data          0x48061a44        0x0 c:/program files/dspace rcphil 2016-a/compiler/qnx650_463/host/win32/x86/usr/bin/../lib/gcc/powerpc-unknown-nto-qnx6.5.0/4.6.3\libgcc.a(_addvsi3.o)
 .data          0x48061a44        0x0 c:/program files/dspace rcphil 2016-a/compiler/qnx650_463/host/win32/x86/usr/bin/../lib/gcc/powerpc-unknown-nto-qnx6.5.0/4.6.3\libgcc.a(_addvdi3.o)
 .data          0x48061a44        0x0 c:/program files/dspace rcphil 2016-a/compiler/qnx650_463/host/win32/x86/usr/bin/../lib/gcc/powerpc-unknown-nto-qnx6.5.0/4.6.3\libgcc.a(_subvsi3.o)
 .data          0x48061a44        0x0 c:/program files/dspace rcphil 2016-a/compiler/qnx650_463/host/win32/x86/usr/bin/../lib/gcc/powerpc-unknown-nto-qnx6.5.0/4.6.3\libgcc.a(_subvdi3.o)
 .data          0x48061a44        0x0 c:/program files/dspace rcphil 2016-a/compiler/qnx650_463/host/win32/x86/usr/bin/../lib/gcc/powerpc-unknown-nto-qnx6.5.0/4.6.3\libgcc.a(_mulvsi3.o)
 .data          0x48061a44        0x0 c:/program files/dspace rcphil 2016-a/compiler/qnx650_463/host/win32/x86/usr/bin/../lib/gcc/powerpc-unknown-nto-qnx6.5.0/4.6.3\libgcc.a(_mulvdi3.o)
 .data          0x48061a44        0x0 c:/program files/dspace rcphil 2016-a/compiler/qnx650_463/host/win32/x86/usr/bin/../lib/gcc/powerpc-unknown-nto-qnx6.5.0/4.6.3\libgcc.a(_negvsi2.o)
 .data          0x48061a44        0x0 c:/program files/dspace rcphil 2016-a/compiler/qnx650_463/host/win32/x86/usr/bin/../lib/gcc/powerpc-unknown-nto-qnx6.5.0/4.6.3\libgcc.a(_negvdi2.o)
 .data          0x48061a44        0x0 c:/program files/dspace rcphil 2016-a/compiler/qnx650_463/host/win32/x86/usr/bin/../lib/gcc/powerpc-unknown-nto-qnx6.5.0/4.6.3\libgcc.a(_ctors.o)
 .data          0x48061a44        0x0 c:/program files/dspace rcphil 2016-a/compiler/qnx650_463/host/win32/x86/usr/bin/../lib/gcc/powerpc-unknown-nto-qnx6.5.0/4.6.3\libgcc.a(_ffssi2.o)
 .data          0x48061a44        0x0 c:/program files/dspace rcphil 2016-a/compiler/qnx650_463/host/win32/x86/usr/bin/../lib/gcc/powerpc-unknown-nto-qnx6.5.0/4.6.3\libgcc.a(_ffsdi2.o)
 .data          0x48061a44        0x0 c:/program files/dspace rcphil 2016-a/compiler/qnx650_463/host/win32/x86/usr/bin/../lib/gcc/powerpc-unknown-nto-qnx6.5.0/4.6.3\libgcc.a(_clz.o)
 .data          0x48061a44        0x0 c:/program files/dspace rcphil 2016-a/compiler/qnx650_463/host/win32/x86/usr/bin/../lib/gcc/powerpc-unknown-nto-qnx6.5.0/4.6.3\libgcc.a(_clzsi2.o)
 .data          0x48061a44        0x0 c:/program files/dspace rcphil 2016-a/compiler/qnx650_463/host/win32/x86/usr/bin/../lib/gcc/powerpc-unknown-nto-qnx6.5.0/4.6.3\libgcc.a(_clzdi2.o)
 .data          0x48061a44        0x0 c:/program files/dspace rcphil 2016-a/compiler/qnx650_463/host/win32/x86/usr/bin/../lib/gcc/powerpc-unknown-nto-qnx6.5.0/4.6.3\libgcc.a(_ctzsi2.o)
 .data          0x48061a44        0x0 c:/program files/dspace rcphil 2016-a/compiler/qnx650_463/host/win32/x86/usr/bin/../lib/gcc/powerpc-unknown-nto-qnx6.5.0/4.6.3\libgcc.a(_ctzdi2.o)
 .data          0x48061a44        0x0 c:/program files/dspace rcphil 2016-a/compiler/qnx650_463/host/win32/x86/usr/bin/../lib/gcc/powerpc-unknown-nto-qnx6.5.0/4.6.3\libgcc.a(_popcount_tab.o)
 .data          0x48061a44        0x0 c:/program files/dspace rcphil 2016-a/compiler/qnx650_463/host/win32/x86/usr/bin/../lib/gcc/powerpc-unknown-nto-qnx6.5.0/4.6.3\libgcc.a(_popcountsi2.o)
 .data          0x48061a44        0x0 c:/program files/dspace rcphil 2016-a/compiler/qnx650_463/host/win32/x86/usr/bin/../lib/gcc/powerpc-unknown-nto-qnx6.5.0/4.6.3\libgcc.a(_popcountdi2.o)
 .data          0x48061a44        0x0 c:/program files/dspace rcphil 2016-a/compiler/qnx650_463/host/win32/x86/usr/bin/../lib/gcc/powerpc-unknown-nto-qnx6.5.0/4.6.3\libgcc.a(_paritysi2.o)
 .data          0x48061a44        0x0 c:/program files/dspace rcphil 2016-a/compiler/qnx650_463/host/win32/x86/usr/bin/../lib/gcc/powerpc-unknown-nto-qnx6.5.0/4.6.3\libgcc.a(_paritydi2.o)
 .data          0x48061a44        0x0 c:/program files/dspace rcphil 2016-a/compiler/qnx650_463/host/win32/x86/usr/bin/../lib/gcc/powerpc-unknown-nto-qnx6.5.0/4.6.3\libgcc.a(_powisf2.o)
 .data          0x48061a44        0x0 c:/program files/dspace rcphil 2016-a/compiler/qnx650_463/host/win32/x86/usr/bin/../lib/gcc/powerpc-unknown-nto-qnx6.5.0/4.6.3\libgcc.a(_powidf2.o)
 .data          0x48061a44        0x0 c:/program files/dspace rcphil 2016-a/compiler/qnx650_463/host/win32/x86/usr/bin/../lib/gcc/powerpc-unknown-nto-qnx6.5.0/4.6.3\libgcc.a(_powixf2.o)
 .data          0x48061a44        0x0 c:/program files/dspace rcphil 2016-a/compiler/qnx650_463/host/win32/x86/usr/bin/../lib/gcc/powerpc-unknown-nto-qnx6.5.0/4.6.3\libgcc.a(_powitf2.o)
 .data          0x48061a44        0x0 c:/program files/dspace rcphil 2016-a/compiler/qnx650_463/host/win32/x86/usr/bin/../lib/gcc/powerpc-unknown-nto-qnx6.5.0/4.6.3\libgcc.a(_mulsc3.o)
 .data          0x48061a44        0x0 c:/program files/dspace rcphil 2016-a/compiler/qnx650_463/host/win32/x86/usr/bin/../lib/gcc/powerpc-unknown-nto-qnx6.5.0/4.6.3\libgcc.a(_muldc3.o)
 .data          0x48061a44        0x0 c:/program files/dspace rcphil 2016-a/compiler/qnx650_463/host/win32/x86/usr/bin/../lib/gcc/powerpc-unknown-nto-qnx6.5.0/4.6.3\libgcc.a(_mulxc3.o)
 .data          0x48061a44        0x0 c:/program files/dspace rcphil 2016-a/compiler/qnx650_463/host/win32/x86/usr/bin/../lib/gcc/powerpc-unknown-nto-qnx6.5.0/4.6.3\libgcc.a(_multc3.o)
 .data          0x48061a44        0x0 c:/program files/dspace rcphil 2016-a/compiler/qnx650_463/host/win32/x86/usr/bin/../lib/gcc/powerpc-unknown-nto-qnx6.5.0/4.6.3\libgcc.a(_divsc3.o)
 .data          0x48061a44        0x0 c:/program files/dspace rcphil 2016-a/compiler/qnx650_463/host/win32/x86/usr/bin/../lib/gcc/powerpc-unknown-nto-qnx6.5.0/4.6.3\libgcc.a(_divdc3.o)
 .data          0x48061a44        0x0 c:/program files/dspace rcphil 2016-a/compiler/qnx650_463/host/win32/x86/usr/bin/../lib/gcc/powerpc-unknown-nto-qnx6.5.0/4.6.3\libgcc.a(_divxc3.o)
 .data          0x48061a44        0x0 c:/program files/dspace rcphil 2016-a/compiler/qnx650_463/host/win32/x86/usr/bin/../lib/gcc/powerpc-unknown-nto-qnx6.5.0/4.6.3\libgcc.a(_divtc3.o)
 .data          0x48061a44        0x0 c:/program files/dspace rcphil 2016-a/compiler/qnx650_463/host/win32/x86/usr/bin/../lib/gcc/powerpc-unknown-nto-qnx6.5.0/4.6.3\libgcc.a(_bswapsi2.o)
 .data          0x48061a44        0x0 c:/program files/dspace rcphil 2016-a/compiler/qnx650_463/host/win32/x86/usr/bin/../lib/gcc/powerpc-unknown-nto-qnx6.5.0/4.6.3\libgcc.a(_bswapdi2.o)
 .data          0x48061a44        0x0 c:/program files/dspace rcphil 2016-a/compiler/qnx650_463/host/win32/x86/usr/bin/../lib/gcc/powerpc-unknown-nto-qnx6.5.0/4.6.3\libgcc.a(_fixunssfsi.o)
 .data          0x48061a44        0x0 c:/program files/dspace rcphil 2016-a/compiler/qnx650_463/host/win32/x86/usr/bin/../lib/gcc/powerpc-unknown-nto-qnx6.5.0/4.6.3\libgcc.a(_fixunsdfsi.o)
 .data          0x48061a44        0x0 c:/program files/dspace rcphil 2016-a/compiler/qnx650_463/host/win32/x86/usr/bin/../lib/gcc/powerpc-unknown-nto-qnx6.5.0/4.6.3\libgcc.a(_fixunsxfsi.o)
 .data          0x48061a44        0x0 c:/program files/dspace rcphil 2016-a/compiler/qnx650_463/host/win32/x86/usr/bin/../lib/gcc/powerpc-unknown-nto-qnx6.5.0/4.6.3\libgcc.a(_fixsfdi.o)
 .data          0x48061a44        0x0 c:/program files/dspace rcphil 2016-a/compiler/qnx650_463/host/win32/x86/usr/bin/../lib/gcc/powerpc-unknown-nto-qnx6.5.0/4.6.3\libgcc.a(_fixdfdi.o)
 .data          0x48061a44        0x0 c:/program files/dspace rcphil 2016-a/compiler/qnx650_463/host/win32/x86/usr/bin/../lib/gcc/powerpc-unknown-nto-qnx6.5.0/4.6.3\libgcc.a(_fixxfdi.o)
 .data          0x48061a44        0x0 c:/program files/dspace rcphil 2016-a/compiler/qnx650_463/host/win32/x86/usr/bin/../lib/gcc/powerpc-unknown-nto-qnx6.5.0/4.6.3\libgcc.a(_fixtfdi.o)
 .data          0x48061a44        0x0 c:/program files/dspace rcphil 2016-a/compiler/qnx650_463/host/win32/x86/usr/bin/../lib/gcc/powerpc-unknown-nto-qnx6.5.0/4.6.3\libgcc.a(_fixunssfdi.o)
 .data          0x48061a44        0x0 c:/program files/dspace rcphil 2016-a/compiler/qnx650_463/host/win32/x86/usr/bin/../lib/gcc/powerpc-unknown-nto-qnx6.5.0/4.6.3\libgcc.a(_fixunsdfdi.o)
 .data          0x48061a44        0x0 c:/program files/dspace rcphil 2016-a/compiler/qnx650_463/host/win32/x86/usr/bin/../lib/gcc/powerpc-unknown-nto-qnx6.5.0/4.6.3\libgcc.a(_fixunsxfdi.o)
 .data          0x48061a44        0x0 c:/program files/dspace rcphil 2016-a/compiler/qnx650_463/host/win32/x86/usr/bin/../lib/gcc/powerpc-unknown-nto-qnx6.5.0/4.6.3\libgcc.a(_fixunstfdi.o)
 .data          0x48061a44        0x0 c:/program files/dspace rcphil 2016-a/compiler/qnx650_463/host/win32/x86/usr/bin/../lib/gcc/powerpc-unknown-nto-qnx6.5.0/4.6.3\libgcc.a(_floatdisf.o)
 .data          0x48061a44        0x0 c:/program files/dspace rcphil 2016-a/compiler/qnx650_463/host/win32/x86/usr/bin/../lib/gcc/powerpc-unknown-nto-qnx6.5.0/4.6.3\libgcc.a(_floatdidf.o)
 .data          0x48061a44        0x0 c:/program files/dspace rcphil 2016-a/compiler/qnx650_463/host/win32/x86/usr/bin/../lib/gcc/powerpc-unknown-nto-qnx6.5.0/4.6.3\libgcc.a(_floatdixf.o)
 .data          0x48061a44        0x0 c:/program files/dspace rcphil 2016-a/compiler/qnx650_463/host/win32/x86/usr/bin/../lib/gcc/powerpc-unknown-nto-qnx6.5.0/4.6.3\libgcc.a(_floatditf.o)
 .data          0x48061a44        0x0 c:/program files/dspace rcphil 2016-a/compiler/qnx650_463/host/win32/x86/usr/bin/../lib/gcc/powerpc-unknown-nto-qnx6.5.0/4.6.3\libgcc.a(_floatundisf.o)
 .data          0x48061a44        0x0 c:/program files/dspace rcphil 2016-a/compiler/qnx650_463/host/win32/x86/usr/bin/../lib/gcc/powerpc-unknown-nto-qnx6.5.0/4.6.3\libgcc.a(_floatundidf.o)
 .data          0x48061a44        0x0 c:/program files/dspace rcphil 2016-a/compiler/qnx650_463/host/win32/x86/usr/bin/../lib/gcc/powerpc-unknown-nto-qnx6.5.0/4.6.3\libgcc.a(_floatundixf.o)
 .data          0x48061a44        0x0 c:/program files/dspace rcphil 2016-a/compiler/qnx650_463/host/win32/x86/usr/bin/../lib/gcc/powerpc-unknown-nto-qnx6.5.0/4.6.3\libgcc.a(_floatunditf.o)
 .data          0x48061a44        0x0 c:/program files/dspace rcphil 2016-a/compiler/qnx650_463/host/win32/x86/usr/bin/../lib/gcc/powerpc-unknown-nto-qnx6.5.0/4.6.3\libgcc.a(_eprintf.o)
 .data          0x48061a44        0x0 c:/program files/dspace rcphil 2016-a/compiler/qnx650_463/host/win32/x86/usr/bin/../lib/gcc/powerpc-unknown-nto-qnx6.5.0/4.6.3\libgcc.a(__gcc_bcmp.o)
 .data          0x48061a44        0x0 c:/program files/dspace rcphil 2016-a/compiler/qnx650_463/host/win32/x86/usr/bin/../lib/gcc/powerpc-unknown-nto-qnx6.5.0/4.6.3\libgcc.a(_divdi3.o)
 .data          0x48061a44        0x0 c:/program files/dspace rcphil 2016-a/compiler/qnx650_463/host/win32/x86/usr/bin/../lib/gcc/powerpc-unknown-nto-qnx6.5.0/4.6.3\libgcc.a(_moddi3.o)
 .data          0x48061a44        0x0 c:/program files/dspace rcphil 2016-a/compiler/qnx650_463/host/win32/x86/usr/bin/../lib/gcc/powerpc-unknown-nto-qnx6.5.0/4.6.3\libgcc.a(_udivdi3.o)
 .data          0x48061a44        0x0 c:/program files/dspace rcphil 2016-a/compiler/qnx650_463/host/win32/x86/usr/bin/../lib/gcc/powerpc-unknown-nto-qnx6.5.0/4.6.3\libgcc.a(_umoddi3.o)
 .data          0x48061a44        0x0 c:/program files/dspace rcphil 2016-a/compiler/qnx650_463/host/win32/x86/usr/bin/../lib/gcc/powerpc-unknown-nto-qnx6.5.0/4.6.3\libgcc.a(_udiv_w_sdiv.o)
 .data          0x48061a44        0x0 c:/program files/dspace rcphil 2016-a/compiler/qnx650_463/host/win32/x86/usr/bin/../lib/gcc/powerpc-unknown-nto-qnx6.5.0/4.6.3\libgcc.a(_udivmoddi4.o)
 .data          0x48061a44        0x0 c:/program files/dspace rcphil 2016-a/compiler/qnx650_463/host/win32/x86/usr/bin/../lib/gcc/powerpc-unknown-nto-qnx6.5.0/4.6.3\libgcc.a(_pack_sf.o)
 .data          0x48061a44        0x0 c:/program files/dspace rcphil 2016-a/compiler/qnx650_463/host/win32/x86/usr/bin/../lib/gcc/powerpc-unknown-nto-qnx6.5.0/4.6.3\libgcc.a(_unpack_sf.o)
 .data          0x48061a44        0x0 c:/program files/dspace rcphil 2016-a/compiler/qnx650_463/host/win32/x86/usr/bin/../lib/gcc/powerpc-unknown-nto-qnx6.5.0/4.6.3\libgcc.a(_addsub_sf.o)
 .data          0x48061a44        0x0 c:/program files/dspace rcphil 2016-a/compiler/qnx650_463/host/win32/x86/usr/bin/../lib/gcc/powerpc-unknown-nto-qnx6.5.0/4.6.3\libgcc.a(_mul_sf.o)
 .data          0x48061a44        0x0 c:/program files/dspace rcphil 2016-a/compiler/qnx650_463/host/win32/x86/usr/bin/../lib/gcc/powerpc-unknown-nto-qnx6.5.0/4.6.3\libgcc.a(_div_sf.o)
 .data          0x48061a44        0x0 c:/program files/dspace rcphil 2016-a/compiler/qnx650_463/host/win32/x86/usr/bin/../lib/gcc/powerpc-unknown-nto-qnx6.5.0/4.6.3\libgcc.a(_fpcmp_parts_sf.o)
 .data          0x48061a44        0x0 c:/program files/dspace rcphil 2016-a/compiler/qnx650_463/host/win32/x86/usr/bin/../lib/gcc/powerpc-unknown-nto-qnx6.5.0/4.6.3\libgcc.a(_compare_sf.o)
 .data          0x48061a44        0x0 c:/program files/dspace rcphil 2016-a/compiler/qnx650_463/host/win32/x86/usr/bin/../lib/gcc/powerpc-unknown-nto-qnx6.5.0/4.6.3\libgcc.a(_eq_sf.o)
 .data          0x48061a44        0x0 c:/program files/dspace rcphil 2016-a/compiler/qnx650_463/host/win32/x86/usr/bin/../lib/gcc/powerpc-unknown-nto-qnx6.5.0/4.6.3\libgcc.a(_ne_sf.o)
 .data          0x48061a44        0x0 c:/program files/dspace rcphil 2016-a/compiler/qnx650_463/host/win32/x86/usr/bin/../lib/gcc/powerpc-unknown-nto-qnx6.5.0/4.6.3\libgcc.a(_gt_sf.o)
 .data          0x48061a44        0x0 c:/program files/dspace rcphil 2016-a/compiler/qnx650_463/host/win32/x86/usr/bin/../lib/gcc/powerpc-unknown-nto-qnx6.5.0/4.6.3\libgcc.a(_ge_sf.o)
 .data          0x48061a44        0x0 c:/program files/dspace rcphil 2016-a/compiler/qnx650_463/host/win32/x86/usr/bin/../lib/gcc/powerpc-unknown-nto-qnx6.5.0/4.6.3\libgcc.a(_lt_sf.o)
 .data          0x48061a44        0x0 c:/program files/dspace rcphil 2016-a/compiler/qnx650_463/host/win32/x86/usr/bin/../lib/gcc/powerpc-unknown-nto-qnx6.5.0/4.6.3\libgcc.a(_le_sf.o)
 .data          0x48061a44        0x0 c:/program files/dspace rcphil 2016-a/compiler/qnx650_463/host/win32/x86/usr/bin/../lib/gcc/powerpc-unknown-nto-qnx6.5.0/4.6.3\libgcc.a(_unord_sf.o)
 .data          0x48061a44        0x0 c:/program files/dspace rcphil 2016-a/compiler/qnx650_463/host/win32/x86/usr/bin/../lib/gcc/powerpc-unknown-nto-qnx6.5.0/4.6.3\libgcc.a(_si_to_sf.o)
 .data          0x48061a44        0x0 c:/program files/dspace rcphil 2016-a/compiler/qnx650_463/host/win32/x86/usr/bin/../lib/gcc/powerpc-unknown-nto-qnx6.5.0/4.6.3\libgcc.a(_sf_to_si.o)
 .data          0x48061a44        0x0 c:/program files/dspace rcphil 2016-a/compiler/qnx650_463/host/win32/x86/usr/bin/../lib/gcc/powerpc-unknown-nto-qnx6.5.0/4.6.3\libgcc.a(_negate_sf.o)
 .data          0x48061a44        0x0 c:/program files/dspace rcphil 2016-a/compiler/qnx650_463/host/win32/x86/usr/bin/../lib/gcc/powerpc-unknown-nto-qnx6.5.0/4.6.3\libgcc.a(_make_sf.o)
 .data          0x48061a44        0x0 c:/program files/dspace rcphil 2016-a/compiler/qnx650_463/host/win32/x86/usr/bin/../lib/gcc/powerpc-unknown-nto-qnx6.5.0/4.6.3\libgcc.a(_sf_to_df.o)
 .data          0x48061a44        0x0 c:/program files/dspace rcphil 2016-a/compiler/qnx650_463/host/win32/x86/usr/bin/../lib/gcc/powerpc-unknown-nto-qnx6.5.0/4.6.3\libgcc.a(_thenan_sf.o)
 .data          0x48061a44        0x0 c:/program files/dspace rcphil 2016-a/compiler/qnx650_463/host/win32/x86/usr/bin/../lib/gcc/powerpc-unknown-nto-qnx6.5.0/4.6.3\libgcc.a(_sf_to_usi.o)
 .data          0x48061a44        0x0 c:/program files/dspace rcphil 2016-a/compiler/qnx650_463/host/win32/x86/usr/bin/../lib/gcc/powerpc-unknown-nto-qnx6.5.0/4.6.3\libgcc.a(_usi_to_sf.o)
 .data          0x48061a44        0x0 c:/program files/dspace rcphil 2016-a/compiler/qnx650_463/host/win32/x86/usr/bin/../lib/gcc/powerpc-unknown-nto-qnx6.5.0/4.6.3\libgcc.a(_pack_df.o)
 .data          0x48061a44        0x0 c:/program files/dspace rcphil 2016-a/compiler/qnx650_463/host/win32/x86/usr/bin/../lib/gcc/powerpc-unknown-nto-qnx6.5.0/4.6.3\libgcc.a(_unpack_df.o)
 .data          0x48061a44        0x0 c:/program files/dspace rcphil 2016-a/compiler/qnx650_463/host/win32/x86/usr/bin/../lib/gcc/powerpc-unknown-nto-qnx6.5.0/4.6.3\libgcc.a(_addsub_df.o)
 .data          0x48061a44        0x0 c:/program files/dspace rcphil 2016-a/compiler/qnx650_463/host/win32/x86/usr/bin/../lib/gcc/powerpc-unknown-nto-qnx6.5.0/4.6.3\libgcc.a(_mul_df.o)
 .data          0x48061a44        0x0 c:/program files/dspace rcphil 2016-a/compiler/qnx650_463/host/win32/x86/usr/bin/../lib/gcc/powerpc-unknown-nto-qnx6.5.0/4.6.3\libgcc.a(_div_df.o)
 .data          0x48061a44        0x0 c:/program files/dspace rcphil 2016-a/compiler/qnx650_463/host/win32/x86/usr/bin/../lib/gcc/powerpc-unknown-nto-qnx6.5.0/4.6.3\libgcc.a(_fpcmp_parts_df.o)
 .data          0x48061a44        0x0 c:/program files/dspace rcphil 2016-a/compiler/qnx650_463/host/win32/x86/usr/bin/../lib/gcc/powerpc-unknown-nto-qnx6.5.0/4.6.3\libgcc.a(_compare_df.o)
 .data          0x48061a44        0x0 c:/program files/dspace rcphil 2016-a/compiler/qnx650_463/host/win32/x86/usr/bin/../lib/gcc/powerpc-unknown-nto-qnx6.5.0/4.6.3\libgcc.a(_eq_df.o)
 .data          0x48061a44        0x0 c:/program files/dspace rcphil 2016-a/compiler/qnx650_463/host/win32/x86/usr/bin/../lib/gcc/powerpc-unknown-nto-qnx6.5.0/4.6.3\libgcc.a(_ne_df.o)
 .data          0x48061a44        0x0 c:/program files/dspace rcphil 2016-a/compiler/qnx650_463/host/win32/x86/usr/bin/../lib/gcc/powerpc-unknown-nto-qnx6.5.0/4.6.3\libgcc.a(_gt_df.o)
 .data          0x48061a44        0x0 c:/program files/dspace rcphil 2016-a/compiler/qnx650_463/host/win32/x86/usr/bin/../lib/gcc/powerpc-unknown-nto-qnx6.5.0/4.6.3\libgcc.a(_ge_df.o)
 .data          0x48061a44        0x0 c:/program files/dspace rcphil 2016-a/compiler/qnx650_463/host/win32/x86/usr/bin/../lib/gcc/powerpc-unknown-nto-qnx6.5.0/4.6.3\libgcc.a(_lt_df.o)
 .data          0x48061a44        0x0 c:/program files/dspace rcphil 2016-a/compiler/qnx650_463/host/win32/x86/usr/bin/../lib/gcc/powerpc-unknown-nto-qnx6.5.0/4.6.3\libgcc.a(_le_df.o)
 .data          0x48061a44        0x0 c:/program files/dspace rcphil 2016-a/compiler/qnx650_463/host/win32/x86/usr/bin/../lib/gcc/powerpc-unknown-nto-qnx6.5.0/4.6.3\libgcc.a(_unord_df.o)
 .data          0x48061a44        0x0 c:/program files/dspace rcphil 2016-a/compiler/qnx650_463/host/win32/x86/usr/bin/../lib/gcc/powerpc-unknown-nto-qnx6.5.0/4.6.3\libgcc.a(_si_to_df.o)
 .data          0x48061a44        0x0 c:/program files/dspace rcphil 2016-a/compiler/qnx650_463/host/win32/x86/usr/bin/../lib/gcc/powerpc-unknown-nto-qnx6.5.0/4.6.3\libgcc.a(_df_to_si.o)
 .data          0x48061a44        0x0 c:/program files/dspace rcphil 2016-a/compiler/qnx650_463/host/win32/x86/usr/bin/../lib/gcc/powerpc-unknown-nto-qnx6.5.0/4.6.3\libgcc.a(_negate_df.o)
 .data          0x48061a44        0x0 c:/program files/dspace rcphil 2016-a/compiler/qnx650_463/host/win32/x86/usr/bin/../lib/gcc/powerpc-unknown-nto-qnx6.5.0/4.6.3\libgcc.a(_make_df.o)
 .data          0x48061a44        0x0 c:/program files/dspace rcphil 2016-a/compiler/qnx650_463/host/win32/x86/usr/bin/../lib/gcc/powerpc-unknown-nto-qnx6.5.0/4.6.3\libgcc.a(_df_to_sf.o)
 .data          0x48061a44        0x0 c:/program files/dspace rcphil 2016-a/compiler/qnx650_463/host/win32/x86/usr/bin/../lib/gcc/powerpc-unknown-nto-qnx6.5.0/4.6.3\libgcc.a(_thenan_df.o)
 .data          0x48061a44        0x0 c:/program files/dspace rcphil 2016-a/compiler/qnx650_463/host/win32/x86/usr/bin/../lib/gcc/powerpc-unknown-nto-qnx6.5.0/4.6.3\libgcc.a(_df_to_usi.o)
 .data          0x48061a44        0x0 c:/program files/dspace rcphil 2016-a/compiler/qnx650_463/host/win32/x86/usr/bin/../lib/gcc/powerpc-unknown-nto-qnx6.5.0/4.6.3\libgcc.a(_usi_to_df.o)
 .data          0x48061a44        0x0 c:/program files/dspace rcphil 2016-a/compiler/qnx650_463/host/win32/x86/usr/bin/../lib/gcc/powerpc-unknown-nto-qnx6.5.0/4.6.3\libgcc.a(tramp.o)
 .data          0x48061a44        0x0 c:/program files/dspace rcphil 2016-a/compiler/qnx650_463/host/win32/x86/usr/bin/../lib/gcc/powerpc-unknown-nto-qnx6.5.0/4.6.3\libgcc.a(crtsavfpr.o)
 .data          0x48061a44        0x0 c:/program files/dspace rcphil 2016-a/compiler/qnx650_463/host/win32/x86/usr/bin/../lib/gcc/powerpc-unknown-nto-qnx6.5.0/4.6.3\libgcc.a(crtresfpr.o)
 .data          0x48061a44        0x0 c:/program files/dspace rcphil 2016-a/compiler/qnx650_463/host/win32/x86/usr/bin/../lib/gcc/powerpc-unknown-nto-qnx6.5.0/4.6.3\libgcc.a(crtsavgpr.o)
 .data          0x48061a44        0x0 c:/program files/dspace rcphil 2016-a/compiler/qnx650_463/host/win32/x86/usr/bin/../lib/gcc/powerpc-unknown-nto-qnx6.5.0/4.6.3\libgcc.a(crtresgpr.o)
 .data          0x48061a44        0x0 c:/program files/dspace rcphil 2016-a/compiler/qnx650_463/host/win32/x86/usr/bin/../lib/gcc/powerpc-unknown-nto-qnx6.5.0/4.6.3\libgcc.a(crtresxfpr.o)
 .data          0x48061a44        0x0 c:/program files/dspace rcphil 2016-a/compiler/qnx650_463/host/win32/x86/usr/bin/../lib/gcc/powerpc-unknown-nto-qnx6.5.0/4.6.3\libgcc.a(crtresxgpr.o)
 .data          0x48061a44        0x0 c:/program files/dspace rcphil 2016-a/compiler/qnx650_463/host/win32/x86/usr/bin/../lib/gcc/powerpc-unknown-nto-qnx6.5.0/4.6.3\libgcc.a(e500crtres32gpr.o)
 .data          0x48061a44        0x0 c:/program files/dspace rcphil 2016-a/compiler/qnx650_463/host/win32/x86/usr/bin/../lib/gcc/powerpc-unknown-nto-qnx6.5.0/4.6.3\libgcc.a(e500crtres64gpr.o)
 .data          0x48061a44        0x0 c:/program files/dspace rcphil 2016-a/compiler/qnx650_463/host/win32/x86/usr/bin/../lib/gcc/powerpc-unknown-nto-qnx6.5.0/4.6.3\libgcc.a(e500crtres64gprctr.o)
 .data          0x48061a44        0x0 c:/program files/dspace rcphil 2016-a/compiler/qnx650_463/host/win32/x86/usr/bin/../lib/gcc/powerpc-unknown-nto-qnx6.5.0/4.6.3\libgcc.a(e500crtrest32gpr.o)
 .data          0x48061a44        0x0 c:/program files/dspace rcphil 2016-a/compiler/qnx650_463/host/win32/x86/usr/bin/../lib/gcc/powerpc-unknown-nto-qnx6.5.0/4.6.3\libgcc.a(e500crtrest64gpr.o)
 .data          0x48061a44        0x0 c:/program files/dspace rcphil 2016-a/compiler/qnx650_463/host/win32/x86/usr/bin/../lib/gcc/powerpc-unknown-nto-qnx6.5.0/4.6.3\libgcc.a(e500crtresx32gpr.o)
 .data          0x48061a44        0x0 c:/program files/dspace rcphil 2016-a/compiler/qnx650_463/host/win32/x86/usr/bin/../lib/gcc/powerpc-unknown-nto-qnx6.5.0/4.6.3\libgcc.a(e500crtresx64gpr.o)
 .data          0x48061a44        0x0 c:/program files/dspace rcphil 2016-a/compiler/qnx650_463/host/win32/x86/usr/bin/../lib/gcc/powerpc-unknown-nto-qnx6.5.0/4.6.3\libgcc.a(e500crtsav32gpr.o)
 .data          0x48061a44        0x0 c:/program files/dspace rcphil 2016-a/compiler/qnx650_463/host/win32/x86/usr/bin/../lib/gcc/powerpc-unknown-nto-qnx6.5.0/4.6.3\libgcc.a(e500crtsav64gpr.o)
 .data          0x48061a44        0x0 c:/program files/dspace rcphil 2016-a/compiler/qnx650_463/host/win32/x86/usr/bin/../lib/gcc/powerpc-unknown-nto-qnx6.5.0/4.6.3\libgcc.a(e500crtsav64gprctr.o)
 .data          0x48061a44        0x0 c:/program files/dspace rcphil 2016-a/compiler/qnx650_463/host/win32/x86/usr/bin/../lib/gcc/powerpc-unknown-nto-qnx6.5.0/4.6.3\libgcc.a(e500crtsavg32gpr.o)
 .data          0x48061a44        0x0 c:/program files/dspace rcphil 2016-a/compiler/qnx650_463/host/win32/x86/usr/bin/../lib/gcc/powerpc-unknown-nto-qnx6.5.0/4.6.3\libgcc.a(e500crtsavg64gpr.o)
 .data          0x48061a44        0x0 c:/program files/dspace rcphil 2016-a/compiler/qnx650_463/host/win32/x86/usr/bin/../lib/gcc/powerpc-unknown-nto-qnx6.5.0/4.6.3\libgcc.a(e500crtsavg64gprctr.o)
 .data          0x48061a44        0xc c:/program files/dspace rcphil 2016-a/compiler/qnx650_463/host/win32/x86/usr/bin/../lib/gcc/powerpc-unknown-nto-qnx6.5.0/4.6.3\libgcc.a(unwind-dw2.o)
 .data          0x48061a50        0x8 c:/program files/dspace rcphil 2016-a/compiler/qnx650_463/host/win32/x86/usr/bin/../lib/gcc/powerpc-unknown-nto-qnx6.5.0/4.6.3\libgcc.a(unwind-dw2-fde.o)
 .data          0x48061a58        0x0 c:/program files/dspace rcphil 2016-a/compiler/qnx650_463/host/win32/x86/usr/bin/../lib/gcc/powerpc-unknown-nto-qnx6.5.0/4.6.3\libgcc.a(unwind-sjlj.o)
 .data          0x48061a58        0x0 c:/program files/dspace rcphil 2016-a/compiler/qnx650_463/host/win32/x86/usr/bin/../lib/gcc/powerpc-unknown-nto-qnx6.5.0/4.6.3\libgcc.a(unwind-c.o)
 .data          0x48061a58       0x14 c:/program files/dspace rcphil 2016-a/compiler/qnx650_463/host/win32/x86/usr/bin/../lib/gcc/powerpc-unknown-nto-qnx6.5.0/4.6.3\libgcc.a(emutls.o)
 .data          0x48061a6c        0x0 c:/program files/dspace rcphil 2016-a/compiler/qnx650_463/host/win32/x86/usr/bin/../lib/gcc/powerpc-unknown-nto-qnx6.5.0/4.6.3/crtend.o
 .data          0x48061a6c        0x0 C:\Program Files\dSPACE RCPHIL 2016-A\Compiler\QNX650_463\target\qnx6/ppcbe/lib/crtn.o

.data1
 *(.data1)

.got            0x48061a6c       0x44
 *(.got)
 .got           0x48061a6c       0x44 C:\Program Files\dSPACE RCPHIL 2016-A\Compiler\QNX650_463\target\qnx6/ppcbe/lib/crt1.o
                0x48061aa4                _GLOBAL_OFFSET_TABLE_

.sdata          0x48061ab0        0x0
                0x00008000                PROVIDE (_SDA_BASE_, 0x8000)
 *(.sdata .sdata.* .gnu.linkonce.s.*)
                0x48061ab0                _edata = .
                0x48061ab0                PROVIDE (edata, .)
                0x48061ab0                __bss_start = .

.sbss           0x48061ab0        0x0
                0x48061ab0                PROVIDE (__sbss_start, .)
                0x48061ab0                PROVIDE (___sbss_start, .)
 *(.dynsbss)
 .dynsbss       0x00000000        0x0 C:\Program Files\dSPACE RCPHIL 2016-A\Compiler\QNX650_463\target\qnx6/ppcbe/lib/crt1.o
 *(.sbss .sbss.* .gnu.linkonce.sb.*)
 *(.scommon)
                0x48061ab0                PROVIDE (__sbss_end, .)
                0x48061ab0                PROVIDE (___sbss_end, .)

.plt            0x48061ab0      0x558
 *(.plt)
 .plt           0x48061ab0      0x558 C:\Program Files\dSPACE RCPHIL 2016-A\Compiler\QNX650_463\target\qnx6/ppcbe/lib/crt1.o
                0x48061af8                DsIoEth_getLinkState
                0x48061b00                ts_reset
                0x48061b08                msg_error_clear
                0x48061b10                dsrtt_set_current_time
                0x48061b18                ds3001_init
                0x48061b20                sqrt
                0x48061b28                DsIoEth_recvfrom
                0x48061b30                calloc
                0x48061b38                rtk_current_task_absolute_time_ptr_get
                0x48061b40                ds2103_init_scantbl
                0x48061b48                DsTimeSync_simstateRun
                0x48061b50                fwrite
                0x48061b58                ds3002_init
                0x48061b60                memcpy
                0x48061b68                rtk_setup_temp_overrun_handling
                0x48061b70                DsIoEth_close
                0x48061b78                DsIoEth_open
                0x48061b80                realloc
                0x48061b88                DsIoEth_setAddrFilter
                0x48061b90                putchar
                0x48061b98                DsIoEth_setNetMask
                0x48061ba0                rtk_reset_tasks
                0x48061ba8                pthread_key_create
                0x48061bb0                __wrap_printf
                0x48061bb8                ds2103_set_errmode
                0x48061bc0                __cxa_finalize
                0x48061bc8                malloc
                0x48061bd0                _init_array
                0x48061bd8                rtk_set_task_type
                0x48061be0                DsTimeSync_baserate
                0x48061be8                rtk_task_name_set
                0x48061bf0                tan
                0x48061bf8                strlen
                0x48061c00                pthread_mutex_lock
                0x48061c08                dsrtt_script_service_post_computation
                0x48061c10                rtk_create_task
                0x48061c18                pthread_once
                0x48061c20                msg_warning_printf
                0x48061c28                msg_last_error_number
                0x48061c30                __wrap_abort
                0x48061c38                dsparam_copy_data_set
                0x48061c40                SrtkPreload_preloadRegion
                0x48061c48                atexit
                0x48061c50                ds3001_set_line_type
                0x48061c58                msg_error_set
                0x48061c60                rtk_enable_services
                0x48061c68                SrtkDaq_Init
                0x48061c70                pthread_getspecific
                0x48061c78                rtk_task_task_calls_get
                0x48061c80                DsTimeSync_setCurrentTimePtr
                0x48061c88                SrtkIntBase_enableIntGlobal
                0x48061c90                vsprintf
                0x48061c98                rtk_overrun_flag_clear
                0x48061ca0                ds2103_set_range
                0x48061ca8                rtk_bind_interrupt
                0x48061cb0                _init_libc
                0x48061cb8                ds3002_read_full_pos
                0x48061cc0                dsrtt_init
                0x48061cc8                SrtkApp_terminate
                0x48061cd0                msg_info_set
                0x48061cd8                DsIoEth_sendto
                0x48061ce0                DsIoEth_setIpAddress
                0x48061ce8                dsrtt_script_service_pre_computation
                0x48061cf0                msg_error_printf
                0x48061cf8                DsIoEth_setGatewayAddress
                0x48061d00                fflush
                0x48061d08                memset
                0x48061d10                _Sin
                0x48061d18                rtk_leave_idle_mode
                0x48061d20                ds3002_start
                0x48061d28                fprintf
                0x48061d30                ds3001_clear_counter
                0x48061d38                __wrap_exit
                0x48061d40                acos
                0x48061d48                _fini_array
                0x48061d50                SrtkDaq_Background
                0x48061d58                _Log
                0x48061d60                _preinit_array
                0x48061d68                SrtkApp_init
                0x48061d70                exp
                0x48061d78                SrtkDaq_Service
                0x48061d80                rtk_task_task_name_get
                0x48061d88                SrtkSim_notifyStateTransition
                0x48061d90                pthread_mutex_unlock
                0x48061d98                msg_info_printf
                0x48061da0                atan2
                0x48061da8                msg_set
                0x48061db0                ds2103_out
                0x48061db8                DsIoEth_queryArpEntry
                0x48061dc0                DsIoEth_getPortState
                0x48061dc8                rtk_get_subentry
                0x48061dd0                free
                0x48061dd8                DsIoEth_htons
                0x48061de0                dsrtt_set_step_size
                0x48061de8                rtk_enter_idle_mode
                0x48061df0                rtk_initialize
                0x48061df8                DsIoEth_create
                0x48061e00                DsIoEth_getMgmtEvent
                0x48061e08                SrtkApp_background
                0x48061e10                rtk_default_overrun_fcn
                0x48061e18                ds2103_init
                0x48061e20                vcm_module_register
                0x48061e28                pthread_setspecific
                0x48061e30                DsTimeSync_simstateStop
                0x48061e38                DsIoEth_setRecvFrameSize
                0x48061e40                ds3001_read_position
                0x48061e48                SrtkIntBase_disableIntGlobal
                0x48061e50                SrtkSim_registerState

.bss            0x48062008     0xc6f4
 *(.dynbss)
 .dynbss        0x48062008      0xae8 C:\Program Files\dSPACE RCPHIL 2016-A\Compiler\QNX650_463\target\qnx6/ppcbe/lib/crt1.o
                0x48062008                errno
                0x48062010                dsts_sum_of_reseted_time
                0x48062018                msg_last_error_no
                0x4806201c                SrtkBoard_pControlRegisters
                0x48062020                phs_basetbl
                0x48062aa0                _Stderr
 *(.bss .bss.* .gnu.linkonce.b.*)
 .bss           0x48062af0        0x0 C:\Program Files\dSPACE RCPHIL 2016-A\Compiler\QNX650_463\target\qnx6/ppcbe/lib/crt1.o
 .bss           0x48062af0        0x0 C:\Program Files\dSPACE RCPHIL 2016-A\Compiler\QNX650_463\target\qnx6/ppcbe/lib/crti.o
 .bss           0x48062af0       0x20 c:/program files/dspace rcphil 2016-a/compiler/qnx650_463/host/win32/x86/usr/bin/../lib/gcc/powerpc-unknown-nto-qnx6.5.0/4.6.3/crtbegin.o
 .bss           0x48062b10        0x0 SystemFunc.o07
 .bss           0x48062b10        0x0 HandFunc.o07
 .bss           0x48062b10        0x0 WAMFunc.o07
 .bss           0x48062b10        0x0 AVSFunc.o07
 .bss           0x48062b10     0x3440 HandApp.o07
                0x48062b10                cog_x
                0x48062b18                cog_y
                0x48062b20                prev_jnt_ang
                0x48062bc8                prev_mfinger_x
                0x48062bd0                prev_mfinger_y
                0x48062c30                prev_rfinger_y
                0x48062c38                prev_rfinger_x
                0x48062c40                prev_lfinger_y
                0x48062c48                prev_lfinger_x
                0x48062c50                hand
 .bss           0x48065f50     0x17f8 WAMApp.o07
                0x48065f84                positionFlag
                0x48065f88                wam
 .bss           0x48067748     0x17c0 WAM2App.o07
                0x48067748                wam2
 .bss           0x48068f08       0x38 AVSApp.o07
                0x48068f18                cur_jnt_ang
                0x48068f28                avs
 .bss           0x48068f40        0xc XYZstageApp.o07
                0x48068f40                xyz
 .bss           0x48068f4c        0x0 LinkHomoMat.o07
 .bss           0x48068f4c        0x0 vec3DRot.o07
 .bss           0x48068f4c        0x0 vec3DInProduct.o07
 .bss           0x48068f4c        0x0 pmatrix.o07
 .bss           0x48068f4c        0x0 homoMat.o07
 .bss           0x48068f4c        0x0 myMatrix.o07
 .bss           0x48068f4c        0x0 Vector.o07
 .bss           0x48068f4c        0x0 Kalman.o07
 *fill*         0x48068f4c        0x4 00
 .bss           0x48068f50       0x5c Predict3D.o07
 .bss           0x48068fac        0x0 throwJnt2armJnt.o07
 .bss           0x48068fac        0x0 storeData.o07
 .bss           0x48068fac        0x0 TaskSet.o07
 .bss           0x48068fac        0x0 handEnc2JntAng.o07
 .bss           0x48068fac        0x0 rtiethernetdecode.o07
 *fill*         0x48068fac        0x4 00
 .bss           0x48068fb0      0x108 handTraj.o07
 .bss           0x480690b8        0x0 handJntAngLimit.o07
 .bss           0x480690b8        0x0 handCtrl.o07
 .bss           0x480690b8        0x0 handJntTrq2DA.o07
 .bss           0x480690b8        0x0 handDALimit.o07
 .bss           0x480690b8        0x0 rtiethernetencode.o07
 .bss           0x480690b8        0x0 XYZstageTraj.o07
 .bss           0x480690b8        0x0 XYZstageAngLimit.o07
 .bss           0x480690b8        0x0 XYZstageEnc2JntAng.o07
 .bss           0x480690b8        0x0 XYZstageCtrl.o07
 .bss           0x480690b8        0x0 XYZstageTrq2DA.o07
 .bss           0x480690b8        0x0 XYZstageDALimit.o07
 .bss           0x480690b8        0x0 SystemSet.o07
 .bss           0x480690b8     0x5080 base.o07
                0x480690b8                base_M_
                0x4806db78                base_B
                0x4806dff8                base_PrevZCX
                0x4806e000                base_DW
 .bss           0x4806e138        0x0 base_data.o07
 .bss           0x4806e138       0x20 base_trc_ptr.o07
                0x4806e138                p_2_base_int_T_2
                0x4806e13c                p_2_base_real_T_0
                0x4806e140                p_1_base_boolean_T_1
                0x4806e144                p_1_base_real_T_0
                0x4806e148                p_0_base_uint8_T_3
                0x4806e14c                p_0_base_uint32_T_2
                0x4806e150                p_0_base_int32_T_1
                0x4806e154                p_0_base_real_T_0
 .bss           0x4806e158        0x0 rtGetInf.o07
 .bss           0x4806e158        0x0 rtGetNaN.o07
 .bss           0x4806e158        0x0 rt_i32zcfcn.o07
 .bss           0x4806e158        0x8 rt_matrx.o07
 .bss           0x4806e160       0x2c rt_nonfinite.o07
                0x4806e160                rtNaN
                0x4806e168                rtNaNF
                0x4806e170                rtInf
                0x4806e178                rtInfF
                0x4806e180                rtMinusInf
                0x4806e188                rtMinusInfF
 .bss           0x4806e18c      0x400 rt_printf.o07
 *fill*         0x4806e58c        0x4 00
 .bss           0x4806e590       0xa4 rti_sim_engine.o07
                0x4806e594                currentTime
                0x4806e598                finalTime
                0x4806e5a0                modelStepSize
                0x4806e5a8                pRti_TIMERA_STime
                0x4806e5ac                pRti_TIMERA_TTime
                0x4806e5b0                pRti_TIMERA_TState
                0x4806e5b4                pRti_TIMERA_OType
                0x4806e5b8                pRti_TIMERA_OMax
                0x4806e5bc                pRti_TIMERA_ORpt
                0x4806e5c0                pRti_TIMERA_OCnt
                0x4806e5c4                pRti_TIMERA_TCnt
                0x4806e5c8                pRti_TIMERA_Prio
                0x4806e5d0                app_num
                0x4806e5d8                host_access_flag
                0x4806e5e0                data
                0x4806e630                rtiAssertionMode
 .bss           0x4806e634        0x4 rti_init_c.o07
 .bss           0x4806e638        0x0 rt_sim.o07
 .bss           0x4806e638        0x0 rti_assert.o07
 .bss           0x4806e638        0x0 C:\Program Files\dSPACE RCPHIL 2016-A\DS1007\Lib\librtversion.a(RtVersion.o)
 .bss           0x4806e638       0x14 C:\Program Files\dSPACE RCPHIL 2016-A\DS1007\Lib\librtglobals.a(DsEESPort.o)
                0x4806e638                xilapi_eesport_trigger_uint32_T
                0x4806e63c                xilapi_eesport_flags_uint32_T
                0x4806e640                xilapi_eesport_errorswitching_uint32_T
                0x4806e644                xilapi_eesport_erroractivated_uint32_T
                0x4806e648                xilapi_eesport_activeerrorset_uint32_T
 .bss           0x4806e64c        0x0 C:\Program Files\dSPACE RCPHIL 2016-A\DS1007\Lib\libm_fastpow.a(w_pow.o)
 .bss           0x4806e64c        0x0 C:\Program Files\dSPACE RCPHIL 2016-A\DS1007\Lib\libm_fastpow.a(e_pow.o)
 .bss           0x4806e64c        0x0 C:\Program Files\dSPACE RCPHIL 2016-A\DS1007\Lib\libm_fastpow.a(s_scalbn.o)
 .bss           0x4806e64c        0x0 c:/program files/dspace rcphil 2016-a/compiler/qnx650_463/host/win32/x86/usr/bin/../lib/gcc/powerpc-unknown-nto-qnx6.5.0/4.6.3\libgcc.a(_muldi3.o)
 .bss           0x4806e64c        0x0 c:/program files/dspace rcphil 2016-a/compiler/qnx650_463/host/win32/x86/usr/bin/../lib/gcc/powerpc-unknown-nto-qnx6.5.0/4.6.3\libgcc.a(_negdi2.o)
 .bss           0x4806e64c        0x0 c:/program files/dspace rcphil 2016-a/compiler/qnx650_463/host/win32/x86/usr/bin/../lib/gcc/powerpc-unknown-nto-qnx6.5.0/4.6.3\libgcc.a(_lshrdi3.o)
 .bss           0x4806e64c        0x0 c:/program files/dspace rcphil 2016-a/compiler/qnx650_463/host/win32/x86/usr/bin/../lib/gcc/powerpc-unknown-nto-qnx6.5.0/4.6.3\libgcc.a(_ashldi3.o)
 .bss           0x4806e64c        0x0 c:/program files/dspace rcphil 2016-a/compiler/qnx650_463/host/win32/x86/usr/bin/../lib/gcc/powerpc-unknown-nto-qnx6.5.0/4.6.3\libgcc.a(_ashrdi3.o)
 .bss           0x4806e64c        0x0 c:/program files/dspace rcphil 2016-a/compiler/qnx650_463/host/win32/x86/usr/bin/../lib/gcc/powerpc-unknown-nto-qnx6.5.0/4.6.3\libgcc.a(_cmpdi2.o)
 .bss           0x4806e64c        0x0 c:/program files/dspace rcphil 2016-a/compiler/qnx650_463/host/win32/x86/usr/bin/../lib/gcc/powerpc-unknown-nto-qnx6.5.0/4.6.3\libgcc.a(_ucmpdi2.o)
 .bss           0x4806e64c        0x0 c:/program files/dspace rcphil 2016-a/compiler/qnx650_463/host/win32/x86/usr/bin/../lib/gcc/powerpc-unknown-nto-qnx6.5.0/4.6.3\libgcc.a(_clear_cache.o)
 .bss           0x4806e64c        0x0 c:/program files/dspace rcphil 2016-a/compiler/qnx650_463/host/win32/x86/usr/bin/../lib/gcc/powerpc-unknown-nto-qnx6.5.0/4.6.3\libgcc.a(_enable_execute_stack.o)
 .bss           0x4806e64c        0x0 c:/program files/dspace rcphil 2016-a/compiler/qnx650_463/host/win32/x86/usr/bin/../lib/gcc/powerpc-unknown-nto-qnx6.5.0/4.6.3\libgcc.a(_trampoline.o)
 .bss           0x4806e64c        0x0 c:/program files/dspace rcphil 2016-a/compiler/qnx650_463/host/win32/x86/usr/bin/../lib/gcc/powerpc-unknown-nto-qnx6.5.0/4.6.3\libgcc.a(__main.o)
 .bss           0x4806e64c        0x0 c:/program files/dspace rcphil 2016-a/compiler/qnx650_463/host/win32/x86/usr/bin/../lib/gcc/powerpc-unknown-nto-qnx6.5.0/4.6.3\libgcc.a(_absvsi2.o)
 .bss           0x4806e64c        0x0 c:/program files/dspace rcphil 2016-a/compiler/qnx650_463/host/win32/x86/usr/bin/../lib/gcc/powerpc-unknown-nto-qnx6.5.0/4.6.3\libgcc.a(_absvdi2.o)
 .bss           0x4806e64c        0x0 c:/program files/dspace rcphil 2016-a/compiler/qnx650_463/host/win32/x86/usr/bin/../lib/gcc/powerpc-unknown-nto-qnx6.5.0/4.6.3\libgcc.a(_addvsi3.o)
 .bss           0x4806e64c        0x0 c:/program files/dspace rcphil 2016-a/compiler/qnx650_463/host/win32/x86/usr/bin/../lib/gcc/powerpc-unknown-nto-qnx6.5.0/4.6.3\libgcc.a(_addvdi3.o)
 .bss           0x4806e64c        0x0 c:/program files/dspace rcphil 2016-a/compiler/qnx650_463/host/win32/x86/usr/bin/../lib/gcc/powerpc-unknown-nto-qnx6.5.0/4.6.3\libgcc.a(_subvsi3.o)
 .bss           0x4806e64c        0x0 c:/program files/dspace rcphil 2016-a/compiler/qnx650_463/host/win32/x86/usr/bin/../lib/gcc/powerpc-unknown-nto-qnx6.5.0/4.6.3\libgcc.a(_subvdi3.o)
 .bss           0x4806e64c        0x0 c:/program files/dspace rcphil 2016-a/compiler/qnx650_463/host/win32/x86/usr/bin/../lib/gcc/powerpc-unknown-nto-qnx6.5.0/4.6.3\libgcc.a(_mulvsi3.o)
 .bss           0x4806e64c        0x0 c:/program files/dspace rcphil 2016-a/compiler/qnx650_463/host/win32/x86/usr/bin/../lib/gcc/powerpc-unknown-nto-qnx6.5.0/4.6.3\libgcc.a(_mulvdi3.o)
 .bss           0x4806e64c        0x0 c:/program files/dspace rcphil 2016-a/compiler/qnx650_463/host/win32/x86/usr/bin/../lib/gcc/powerpc-unknown-nto-qnx6.5.0/4.6.3\libgcc.a(_negvsi2.o)
 .bss           0x4806e64c        0x0 c:/program files/dspace rcphil 2016-a/compiler/qnx650_463/host/win32/x86/usr/bin/../lib/gcc/powerpc-unknown-nto-qnx6.5.0/4.6.3\libgcc.a(_negvdi2.o)
 .bss           0x4806e64c        0x0 c:/program files/dspace rcphil 2016-a/compiler/qnx650_463/host/win32/x86/usr/bin/../lib/gcc/powerpc-unknown-nto-qnx6.5.0/4.6.3\libgcc.a(_ctors.o)
 .bss           0x4806e64c        0x0 c:/program files/dspace rcphil 2016-a/compiler/qnx650_463/host/win32/x86/usr/bin/../lib/gcc/powerpc-unknown-nto-qnx6.5.0/4.6.3\libgcc.a(_ffssi2.o)
 .bss           0x4806e64c        0x0 c:/program files/dspace rcphil 2016-a/compiler/qnx650_463/host/win32/x86/usr/bin/../lib/gcc/powerpc-unknown-nto-qnx6.5.0/4.6.3\libgcc.a(_ffsdi2.o)
 .bss           0x4806e64c        0x0 c:/program files/dspace rcphil 2016-a/compiler/qnx650_463/host/win32/x86/usr/bin/../lib/gcc/powerpc-unknown-nto-qnx6.5.0/4.6.3\libgcc.a(_clz.o)
 .bss           0x4806e64c        0x0 c:/program files/dspace rcphil 2016-a/compiler/qnx650_463/host/win32/x86/usr/bin/../lib/gcc/powerpc-unknown-nto-qnx6.5.0/4.6.3\libgcc.a(_clzsi2.o)
 .bss           0x4806e64c        0x0 c:/program files/dspace rcphil 2016-a/compiler/qnx650_463/host/win32/x86/usr/bin/../lib/gcc/powerpc-unknown-nto-qnx6.5.0/4.6.3\libgcc.a(_clzdi2.o)
 .bss           0x4806e64c        0x0 c:/program files/dspace rcphil 2016-a/compiler/qnx650_463/host/win32/x86/usr/bin/../lib/gcc/powerpc-unknown-nto-qnx6.5.0/4.6.3\libgcc.a(_ctzsi2.o)
 .bss           0x4806e64c        0x0 c:/program files/dspace rcphil 2016-a/compiler/qnx650_463/host/win32/x86/usr/bin/../lib/gcc/powerpc-unknown-nto-qnx6.5.0/4.6.3\libgcc.a(_ctzdi2.o)
 .bss           0x4806e64c        0x0 c:/program files/dspace rcphil 2016-a/compiler/qnx650_463/host/win32/x86/usr/bin/../lib/gcc/powerpc-unknown-nto-qnx6.5.0/4.6.3\libgcc.a(_popcount_tab.o)
 .bss           0x4806e64c        0x0 c:/program files/dspace rcphil 2016-a/compiler/qnx650_463/host/win32/x86/usr/bin/../lib/gcc/powerpc-unknown-nto-qnx6.5.0/4.6.3\libgcc.a(_popcountsi2.o)
 .bss           0x4806e64c        0x0 c:/program files/dspace rcphil 2016-a/compiler/qnx650_463/host/win32/x86/usr/bin/../lib/gcc/powerpc-unknown-nto-qnx6.5.0/4.6.3\libgcc.a(_popcountdi2.o)
 .bss           0x4806e64c        0x0 c:/program files/dspace rcphil 2016-a/compiler/qnx650_463/host/win32/x86/usr/bin/../lib/gcc/powerpc-unknown-nto-qnx6.5.0/4.6.3\libgcc.a(_paritysi2.o)
 .bss           0x4806e64c        0x0 c:/program files/dspace rcphil 2016-a/compiler/qnx650_463/host/win32/x86/usr/bin/../lib/gcc/powerpc-unknown-nto-qnx6.5.0/4.6.3\libgcc.a(_paritydi2.o)
 .bss           0x4806e64c        0x0 c:/program files/dspace rcphil 2016-a/compiler/qnx650_463/host/win32/x86/usr/bin/../lib/gcc/powerpc-unknown-nto-qnx6.5.0/4.6.3\libgcc.a(_powisf2.o)
 .bss           0x4806e64c        0x0 c:/program files/dspace rcphil 2016-a/compiler/qnx650_463/host/win32/x86/usr/bin/../lib/gcc/powerpc-unknown-nto-qnx6.5.0/4.6.3\libgcc.a(_powidf2.o)
 .bss           0x4806e64c        0x0 c:/program files/dspace rcphil 2016-a/compiler/qnx650_463/host/win32/x86/usr/bin/../lib/gcc/powerpc-unknown-nto-qnx6.5.0/4.6.3\libgcc.a(_powixf2.o)
 .bss           0x4806e64c        0x0 c:/program files/dspace rcphil 2016-a/compiler/qnx650_463/host/win32/x86/usr/bin/../lib/gcc/powerpc-unknown-nto-qnx6.5.0/4.6.3\libgcc.a(_powitf2.o)
 .bss           0x4806e64c        0x0 c:/program files/dspace rcphil 2016-a/compiler/qnx650_463/host/win32/x86/usr/bin/../lib/gcc/powerpc-unknown-nto-qnx6.5.0/4.6.3\libgcc.a(_mulsc3.o)
 .bss           0x4806e64c        0x0 c:/program files/dspace rcphil 2016-a/compiler/qnx650_463/host/win32/x86/usr/bin/../lib/gcc/powerpc-unknown-nto-qnx6.5.0/4.6.3\libgcc.a(_muldc3.o)
 .bss           0x4806e64c        0x0 c:/program files/dspace rcphil 2016-a/compiler/qnx650_463/host/win32/x86/usr/bin/../lib/gcc/powerpc-unknown-nto-qnx6.5.0/4.6.3\libgcc.a(_mulxc3.o)
 .bss           0x4806e64c        0x0 c:/program files/dspace rcphil 2016-a/compiler/qnx650_463/host/win32/x86/usr/bin/../lib/gcc/powerpc-unknown-nto-qnx6.5.0/4.6.3\libgcc.a(_multc3.o)
 .bss           0x4806e64c        0x0 c:/program files/dspace rcphil 2016-a/compiler/qnx650_463/host/win32/x86/usr/bin/../lib/gcc/powerpc-unknown-nto-qnx6.5.0/4.6.3\libgcc.a(_divsc3.o)
 .bss           0x4806e64c        0x0 c:/program files/dspace rcphil 2016-a/compiler/qnx650_463/host/win32/x86/usr/bin/../lib/gcc/powerpc-unknown-nto-qnx6.5.0/4.6.3\libgcc.a(_divdc3.o)
 .bss           0x4806e64c        0x0 c:/program files/dspace rcphil 2016-a/compiler/qnx650_463/host/win32/x86/usr/bin/../lib/gcc/powerpc-unknown-nto-qnx6.5.0/4.6.3\libgcc.a(_divxc3.o)
 .bss           0x4806e64c        0x0 c:/program files/dspace rcphil 2016-a/compiler/qnx650_463/host/win32/x86/usr/bin/../lib/gcc/powerpc-unknown-nto-qnx6.5.0/4.6.3\libgcc.a(_divtc3.o)
 .bss           0x4806e64c        0x0 c:/program files/dspace rcphil 2016-a/compiler/qnx650_463/host/win32/x86/usr/bin/../lib/gcc/powerpc-unknown-nto-qnx6.5.0/4.6.3\libgcc.a(_bswapsi2.o)
 .bss           0x4806e64c        0x0 c:/program files/dspace rcphil 2016-a/compiler/qnx650_463/host/win32/x86/usr/bin/../lib/gcc/powerpc-unknown-nto-qnx6.5.0/4.6.3\libgcc.a(_bswapdi2.o)
 .bss           0x4806e64c        0x0 c:/program files/dspace rcphil 2016-a/compiler/qnx650_463/host/win32/x86/usr/bin/../lib/gcc/powerpc-unknown-nto-qnx6.5.0/4.6.3\libgcc.a(_fixunssfsi.o)
 .bss           0x4806e64c        0x0 c:/program files/dspace rcphil 2016-a/compiler/qnx650_463/host/win32/x86/usr/bin/../lib/gcc/powerpc-unknown-nto-qnx6.5.0/4.6.3\libgcc.a(_fixunsdfsi.o)
 .bss           0x4806e64c        0x0 c:/program files/dspace rcphil 2016-a/compiler/qnx650_463/host/win32/x86/usr/bin/../lib/gcc/powerpc-unknown-nto-qnx6.5.0/4.6.3\libgcc.a(_fixunsxfsi.o)
 .bss           0x4806e64c        0x0 c:/program files/dspace rcphil 2016-a/compiler/qnx650_463/host/win32/x86/usr/bin/../lib/gcc/powerpc-unknown-nto-qnx6.5.0/4.6.3\libgcc.a(_fixsfdi.o)
 .bss           0x4806e64c        0x0 c:/program files/dspace rcphil 2016-a/compiler/qnx650_463/host/win32/x86/usr/bin/../lib/gcc/powerpc-unknown-nto-qnx6.5.0/4.6.3\libgcc.a(_fixdfdi.o)
 .bss           0x4806e64c        0x0 c:/program files/dspace rcphil 2016-a/compiler/qnx650_463/host/win32/x86/usr/bin/../lib/gcc/powerpc-unknown-nto-qnx6.5.0/4.6.3\libgcc.a(_fixxfdi.o)
 .bss           0x4806e64c        0x0 c:/program files/dspace rcphil 2016-a/compiler/qnx650_463/host/win32/x86/usr/bin/../lib/gcc/powerpc-unknown-nto-qnx6.5.0/4.6.3\libgcc.a(_fixtfdi.o)
 .bss           0x4806e64c        0x0 c:/program files/dspace rcphil 2016-a/compiler/qnx650_463/host/win32/x86/usr/bin/../lib/gcc/powerpc-unknown-nto-qnx6.5.0/4.6.3\libgcc.a(_fixunssfdi.o)
 .bss           0x4806e64c        0x0 c:/program files/dspace rcphil 2016-a/compiler/qnx650_463/host/win32/x86/usr/bin/../lib/gcc/powerpc-unknown-nto-qnx6.5.0/4.6.3\libgcc.a(_fixunsdfdi.o)
 .bss           0x4806e64c        0x0 c:/program files/dspace rcphil 2016-a/compiler/qnx650_463/host/win32/x86/usr/bin/../lib/gcc/powerpc-unknown-nto-qnx6.5.0/4.6.3\libgcc.a(_fixunsxfdi.o)
 .bss           0x4806e64c        0x0 c:/program files/dspace rcphil 2016-a/compiler/qnx650_463/host/win32/x86/usr/bin/../lib/gcc/powerpc-unknown-nto-qnx6.5.0/4.6.3\libgcc.a(_fixunstfdi.o)
 .bss           0x4806e64c        0x0 c:/program files/dspace rcphil 2016-a/compiler/qnx650_463/host/win32/x86/usr/bin/../lib/gcc/powerpc-unknown-nto-qnx6.5.0/4.6.3\libgcc.a(_floatdisf.o)
 .bss           0x4806e64c        0x0 c:/program files/dspace rcphil 2016-a/compiler/qnx650_463/host/win32/x86/usr/bin/../lib/gcc/powerpc-unknown-nto-qnx6.5.0/4.6.3\libgcc.a(_floatdidf.o)
 .bss           0x4806e64c        0x0 c:/program files/dspace rcphil 2016-a/compiler/qnx650_463/host/win32/x86/usr/bin/../lib/gcc/powerpc-unknown-nto-qnx6.5.0/4.6.3\libgcc.a(_floatdixf.o)
 .bss           0x4806e64c        0x0 c:/program files/dspace rcphil 2016-a/compiler/qnx650_463/host/win32/x86/usr/bin/../lib/gcc/powerpc-unknown-nto-qnx6.5.0/4.6.3\libgcc.a(_floatditf.o)
 .bss           0x4806e64c        0x0 c:/program files/dspace rcphil 2016-a/compiler/qnx650_463/host/win32/x86/usr/bin/../lib/gcc/powerpc-unknown-nto-qnx6.5.0/4.6.3\libgcc.a(_floatundisf.o)
 .bss           0x4806e64c        0x0 c:/program files/dspace rcphil 2016-a/compiler/qnx650_463/host/win32/x86/usr/bin/../lib/gcc/powerpc-unknown-nto-qnx6.5.0/4.6.3\libgcc.a(_floatundidf.o)
 .bss           0x4806e64c        0x0 c:/program files/dspace rcphil 2016-a/compiler/qnx650_463/host/win32/x86/usr/bin/../lib/gcc/powerpc-unknown-nto-qnx6.5.0/4.6.3\libgcc.a(_floatundixf.o)
 .bss           0x4806e64c        0x0 c:/program files/dspace rcphil 2016-a/compiler/qnx650_463/host/win32/x86/usr/bin/../lib/gcc/powerpc-unknown-nto-qnx6.5.0/4.6.3\libgcc.a(_floatunditf.o)
 .bss           0x4806e64c        0x0 c:/program files/dspace rcphil 2016-a/compiler/qnx650_463/host/win32/x86/usr/bin/../lib/gcc/powerpc-unknown-nto-qnx6.5.0/4.6.3\libgcc.a(_eprintf.o)
 .bss           0x4806e64c        0x0 c:/program files/dspace rcphil 2016-a/compiler/qnx650_463/host/win32/x86/usr/bin/../lib/gcc/powerpc-unknown-nto-qnx6.5.0/4.6.3\libgcc.a(__gcc_bcmp.o)
 .bss           0x4806e64c        0x0 c:/program files/dspace rcphil 2016-a/compiler/qnx650_463/host/win32/x86/usr/bin/../lib/gcc/powerpc-unknown-nto-qnx6.5.0/4.6.3\libgcc.a(_divdi3.o)
 .bss           0x4806e64c        0x0 c:/program files/dspace rcphil 2016-a/compiler/qnx650_463/host/win32/x86/usr/bin/../lib/gcc/powerpc-unknown-nto-qnx6.5.0/4.6.3\libgcc.a(_moddi3.o)
 .bss           0x4806e64c        0x0 c:/program files/dspace rcphil 2016-a/compiler/qnx650_463/host/win32/x86/usr/bin/../lib/gcc/powerpc-unknown-nto-qnx6.5.0/4.6.3\libgcc.a(_udivdi3.o)
 .bss           0x4806e64c        0x0 c:/program files/dspace rcphil 2016-a/compiler/qnx650_463/host/win32/x86/usr/bin/../lib/gcc/powerpc-unknown-nto-qnx6.5.0/4.6.3\libgcc.a(_umoddi3.o)
 .bss           0x4806e64c        0x0 c:/program files/dspace rcphil 2016-a/compiler/qnx650_463/host/win32/x86/usr/bin/../lib/gcc/powerpc-unknown-nto-qnx6.5.0/4.6.3\libgcc.a(_udiv_w_sdiv.o)
 .bss           0x4806e64c        0x0 c:/program files/dspace rcphil 2016-a/compiler/qnx650_463/host/win32/x86/usr/bin/../lib/gcc/powerpc-unknown-nto-qnx6.5.0/4.6.3\libgcc.a(_udivmoddi4.o)
 .bss           0x4806e64c        0x0 c:/program files/dspace rcphil 2016-a/compiler/qnx650_463/host/win32/x86/usr/bin/../lib/gcc/powerpc-unknown-nto-qnx6.5.0/4.6.3\libgcc.a(_pack_sf.o)
 .bss           0x4806e64c        0x0 c:/program files/dspace rcphil 2016-a/compiler/qnx650_463/host/win32/x86/usr/bin/../lib/gcc/powerpc-unknown-nto-qnx6.5.0/4.6.3\libgcc.a(_unpack_sf.o)
 .bss           0x4806e64c        0x0 c:/program files/dspace rcphil 2016-a/compiler/qnx650_463/host/win32/x86/usr/bin/../lib/gcc/powerpc-unknown-nto-qnx6.5.0/4.6.3\libgcc.a(_addsub_sf.o)
 .bss           0x4806e64c        0x0 c:/program files/dspace rcphil 2016-a/compiler/qnx650_463/host/win32/x86/usr/bin/../lib/gcc/powerpc-unknown-nto-qnx6.5.0/4.6.3\libgcc.a(_mul_sf.o)
 .bss           0x4806e64c        0x0 c:/program files/dspace rcphil 2016-a/compiler/qnx650_463/host/win32/x86/usr/bin/../lib/gcc/powerpc-unknown-nto-qnx6.5.0/4.6.3\libgcc.a(_div_sf.o)
 .bss           0x4806e64c        0x0 c:/program files/dspace rcphil 2016-a/compiler/qnx650_463/host/win32/x86/usr/bin/../lib/gcc/powerpc-unknown-nto-qnx6.5.0/4.6.3\libgcc.a(_fpcmp_parts_sf.o)
 .bss           0x4806e64c        0x0 c:/program files/dspace rcphil 2016-a/compiler/qnx650_463/host/win32/x86/usr/bin/../lib/gcc/powerpc-unknown-nto-qnx6.5.0/4.6.3\libgcc.a(_compare_sf.o)
 .bss           0x4806e64c        0x0 c:/program files/dspace rcphil 2016-a/compiler/qnx650_463/host/win32/x86/usr/bin/../lib/gcc/powerpc-unknown-nto-qnx6.5.0/4.6.3\libgcc.a(_eq_sf.o)
 .bss           0x4806e64c        0x0 c:/program files/dspace rcphil 2016-a/compiler/qnx650_463/host/win32/x86/usr/bin/../lib/gcc/powerpc-unknown-nto-qnx6.5.0/4.6.3\libgcc.a(_ne_sf.o)
 .bss           0x4806e64c        0x0 c:/program files/dspace rcphil 2016-a/compiler/qnx650_463/host/win32/x86/usr/bin/../lib/gcc/powerpc-unknown-nto-qnx6.5.0/4.6.3\libgcc.a(_gt_sf.o)
 .bss           0x4806e64c        0x0 c:/program files/dspace rcphil 2016-a/compiler/qnx650_463/host/win32/x86/usr/bin/../lib/gcc/powerpc-unknown-nto-qnx6.5.0/4.6.3\libgcc.a(_ge_sf.o)
 .bss           0x4806e64c        0x0 c:/program files/dspace rcphil 2016-a/compiler/qnx650_463/host/win32/x86/usr/bin/../lib/gcc/powerpc-unknown-nto-qnx6.5.0/4.6.3\libgcc.a(_lt_sf.o)
 .bss           0x4806e64c        0x0 c:/program files/dspace rcphil 2016-a/compiler/qnx650_463/host/win32/x86/usr/bin/../lib/gcc/powerpc-unknown-nto-qnx6.5.0/4.6.3\libgcc.a(_le_sf.o)
 .bss           0x4806e64c        0x0 c:/program files/dspace rcphil 2016-a/compiler/qnx650_463/host/win32/x86/usr/bin/../lib/gcc/powerpc-unknown-nto-qnx6.5.0/4.6.3\libgcc.a(_unord_sf.o)
 .bss           0x4806e64c        0x0 c:/program files/dspace rcphil 2016-a/compiler/qnx650_463/host/win32/x86/usr/bin/../lib/gcc/powerpc-unknown-nto-qnx6.5.0/4.6.3\libgcc.a(_si_to_sf.o)
 .bss           0x4806e64c        0x0 c:/program files/dspace rcphil 2016-a/compiler/qnx650_463/host/win32/x86/usr/bin/../lib/gcc/powerpc-unknown-nto-qnx6.5.0/4.6.3\libgcc.a(_sf_to_si.o)
 .bss           0x4806e64c        0x0 c:/program files/dspace rcphil 2016-a/compiler/qnx650_463/host/win32/x86/usr/bin/../lib/gcc/powerpc-unknown-nto-qnx6.5.0/4.6.3\libgcc.a(_negate_sf.o)
 .bss           0x4806e64c        0x0 c:/program files/dspace rcphil 2016-a/compiler/qnx650_463/host/win32/x86/usr/bin/../lib/gcc/powerpc-unknown-nto-qnx6.5.0/4.6.3\libgcc.a(_make_sf.o)
 .bss           0x4806e64c        0x0 c:/program files/dspace rcphil 2016-a/compiler/qnx650_463/host/win32/x86/usr/bin/../lib/gcc/powerpc-unknown-nto-qnx6.5.0/4.6.3\libgcc.a(_sf_to_df.o)
 .bss           0x4806e64c        0x0 c:/program files/dspace rcphil 2016-a/compiler/qnx650_463/host/win32/x86/usr/bin/../lib/gcc/powerpc-unknown-nto-qnx6.5.0/4.6.3\libgcc.a(_thenan_sf.o)
 .bss           0x4806e64c        0x0 c:/program files/dspace rcphil 2016-a/compiler/qnx650_463/host/win32/x86/usr/bin/../lib/gcc/powerpc-unknown-nto-qnx6.5.0/4.6.3\libgcc.a(_sf_to_usi.o)
 .bss           0x4806e64c        0x0 c:/program files/dspace rcphil 2016-a/compiler/qnx650_463/host/win32/x86/usr/bin/../lib/gcc/powerpc-unknown-nto-qnx6.5.0/4.6.3\libgcc.a(_usi_to_sf.o)
 .bss           0x4806e64c        0x0 c:/program files/dspace rcphil 2016-a/compiler/qnx650_463/host/win32/x86/usr/bin/../lib/gcc/powerpc-unknown-nto-qnx6.5.0/4.6.3\libgcc.a(_pack_df.o)
 .bss           0x4806e64c        0x0 c:/program files/dspace rcphil 2016-a/compiler/qnx650_463/host/win32/x86/usr/bin/../lib/gcc/powerpc-unknown-nto-qnx6.5.0/4.6.3\libgcc.a(_unpack_df.o)
 .bss           0x4806e64c        0x0 c:/program files/dspace rcphil 2016-a/compiler/qnx650_463/host/win32/x86/usr/bin/../lib/gcc/powerpc-unknown-nto-qnx6.5.0/4.6.3\libgcc.a(_addsub_df.o)
 .bss           0x4806e64c        0x0 c:/program files/dspace rcphil 2016-a/compiler/qnx650_463/host/win32/x86/usr/bin/../lib/gcc/powerpc-unknown-nto-qnx6.5.0/4.6.3\libgcc.a(_mul_df.o)
 .bss           0x4806e64c        0x0 c:/program files/dspace rcphil 2016-a/compiler/qnx650_463/host/win32/x86/usr/bin/../lib/gcc/powerpc-unknown-nto-qnx6.5.0/4.6.3\libgcc.a(_div_df.o)
 .bss           0x4806e64c        0x0 c:/program files/dspace rcphil 2016-a/compiler/qnx650_463/host/win32/x86/usr/bin/../lib/gcc/powerpc-unknown-nto-qnx6.5.0/4.6.3\libgcc.a(_fpcmp_parts_df.o)
 .bss           0x4806e64c        0x0 c:/program files/dspace rcphil 2016-a/compiler/qnx650_463/host/win32/x86/usr/bin/../lib/gcc/powerpc-unknown-nto-qnx6.5.0/4.6.3\libgcc.a(_compare_df.o)
 .bss           0x4806e64c        0x0 c:/program files/dspace rcphil 2016-a/compiler/qnx650_463/host/win32/x86/usr/bin/../lib/gcc/powerpc-unknown-nto-qnx6.5.0/4.6.3\libgcc.a(_eq_df.o)
 .bss           0x4806e64c        0x0 c:/program files/dspace rcphil 2016-a/compiler/qnx650_463/host/win32/x86/usr/bin/../lib/gcc/powerpc-unknown-nto-qnx6.5.0/4.6.3\libgcc.a(_ne_df.o)
 .bss           0x4806e64c        0x0 c:/program files/dspace rcphil 2016-a/compiler/qnx650_463/host/win32/x86/usr/bin/../lib/gcc/powerpc-unknown-nto-qnx6.5.0/4.6.3\libgcc.a(_gt_df.o)
 .bss           0x4806e64c        0x0 c:/program files/dspace rcphil 2016-a/compiler/qnx650_463/host/win32/x86/usr/bin/../lib/gcc/powerpc-unknown-nto-qnx6.5.0/4.6.3\libgcc.a(_ge_df.o)
 .bss           0x4806e64c        0x0 c:/program files/dspace rcphil 2016-a/compiler/qnx650_463/host/win32/x86/usr/bin/../lib/gcc/powerpc-unknown-nto-qnx6.5.0/4.6.3\libgcc.a(_lt_df.o)
 .bss           0x4806e64c        0x0 c:/program files/dspace rcphil 2016-a/compiler/qnx650_463/host/win32/x86/usr/bin/../lib/gcc/powerpc-unknown-nto-qnx6.5.0/4.6.3\libgcc.a(_le_df.o)
 .bss           0x4806e64c        0x0 c:/program files/dspace rcphil 2016-a/compiler/qnx650_463/host/win32/x86/usr/bin/../lib/gcc/powerpc-unknown-nto-qnx6.5.0/4.6.3\libgcc.a(_unord_df.o)
 .bss           0x4806e64c        0x0 c:/program files/dspace rcphil 2016-a/compiler/qnx650_463/host/win32/x86/usr/bin/../lib/gcc/powerpc-unknown-nto-qnx6.5.0/4.6.3\libgcc.a(_si_to_df.o)
 .bss           0x4806e64c        0x0 c:/program files/dspace rcphil 2016-a/compiler/qnx650_463/host/win32/x86/usr/bin/../lib/gcc/powerpc-unknown-nto-qnx6.5.0/4.6.3\libgcc.a(_df_to_si.o)
 .bss           0x4806e64c        0x0 c:/program files/dspace rcphil 2016-a/compiler/qnx650_463/host/win32/x86/usr/bin/../lib/gcc/powerpc-unknown-nto-qnx6.5.0/4.6.3\libgcc.a(_negate_df.o)
 .bss           0x4806e64c        0x0 c:/program files/dspace rcphil 2016-a/compiler/qnx650_463/host/win32/x86/usr/bin/../lib/gcc/powerpc-unknown-nto-qnx6.5.0/4.6.3\libgcc.a(_make_df.o)
 .bss           0x4806e64c        0x0 c:/program files/dspace rcphil 2016-a/compiler/qnx650_463/host/win32/x86/usr/bin/../lib/gcc/powerpc-unknown-nto-qnx6.5.0/4.6.3\libgcc.a(_df_to_sf.o)
 .bss           0x4806e64c        0x0 c:/program files/dspace rcphil 2016-a/compiler/qnx650_463/host/win32/x86/usr/bin/../lib/gcc/powerpc-unknown-nto-qnx6.5.0/4.6.3\libgcc.a(_thenan_df.o)
 .bss           0x4806e64c        0x0 c:/program files/dspace rcphil 2016-a/compiler/qnx650_463/host/win32/x86/usr/bin/../lib/gcc/powerpc-unknown-nto-qnx6.5.0/4.6.3\libgcc.a(_df_to_usi.o)
 .bss           0x4806e64c        0x0 c:/program files/dspace rcphil 2016-a/compiler/qnx650_463/host/win32/x86/usr/bin/../lib/gcc/powerpc-unknown-nto-qnx6.5.0/4.6.3\libgcc.a(_usi_to_df.o)
 .bss           0x4806e64c        0x0 c:/program files/dspace rcphil 2016-a/compiler/qnx650_463/host/win32/x86/usr/bin/../lib/gcc/powerpc-unknown-nto-qnx6.5.0/4.6.3\libgcc.a(tramp.o)
 .bss           0x4806e64c        0x0 c:/program files/dspace rcphil 2016-a/compiler/qnx650_463/host/win32/x86/usr/bin/../lib/gcc/powerpc-unknown-nto-qnx6.5.0/4.6.3\libgcc.a(crtsavfpr.o)
 .bss           0x4806e64c        0x0 c:/program files/dspace rcphil 2016-a/compiler/qnx650_463/host/win32/x86/usr/bin/../lib/gcc/powerpc-unknown-nto-qnx6.5.0/4.6.3\libgcc.a(crtresfpr.o)
 .bss           0x4806e64c        0x0 c:/program files/dspace rcphil 2016-a/compiler/qnx650_463/host/win32/x86/usr/bin/../lib/gcc/powerpc-unknown-nto-qnx6.5.0/4.6.3\libgcc.a(crtsavgpr.o)
 .bss           0x4806e64c        0x0 c:/program files/dspace rcphil 2016-a/compiler/qnx650_463/host/win32/x86/usr/bin/../lib/gcc/powerpc-unknown-nto-qnx6.5.0/4.6.3\libgcc.a(crtresgpr.o)
 .bss           0x4806e64c        0x0 c:/program files/dspace rcphil 2016-a/compiler/qnx650_463/host/win32/x86/usr/bin/../lib/gcc/powerpc-unknown-nto-qnx6.5.0/4.6.3\libgcc.a(crtresxfpr.o)
 .bss           0x4806e64c        0x0 c:/program files/dspace rcphil 2016-a/compiler/qnx650_463/host/win32/x86/usr/bin/../lib/gcc/powerpc-unknown-nto-qnx6.5.0/4.6.3\libgcc.a(crtresxgpr.o)
 .bss           0x4806e64c        0x0 c:/program files/dspace rcphil 2016-a/compiler/qnx650_463/host/win32/x86/usr/bin/../lib/gcc/powerpc-unknown-nto-qnx6.5.0/4.6.3\libgcc.a(e500crtres32gpr.o)
 .bss           0x4806e64c        0x0 c:/program files/dspace rcphil 2016-a/compiler/qnx650_463/host/win32/x86/usr/bin/../lib/gcc/powerpc-unknown-nto-qnx6.5.0/4.6.3\libgcc.a(e500crtres64gpr.o)
 .bss           0x4806e64c        0x0 c:/program files/dspace rcphil 2016-a/compiler/qnx650_463/host/win32/x86/usr/bin/../lib/gcc/powerpc-unknown-nto-qnx6.5.0/4.6.3\libgcc.a(e500crtres64gprctr.o)
 .bss           0x4806e64c        0x0 c:/program files/dspace rcphil 2016-a/compiler/qnx650_463/host/win32/x86/usr/bin/../lib/gcc/powerpc-unknown-nto-qnx6.5.0/4.6.3\libgcc.a(e500crtrest32gpr.o)
 .bss           0x4806e64c        0x0 c:/program files/dspace rcphil 2016-a/compiler/qnx650_463/host/win32/x86/usr/bin/../lib/gcc/powerpc-unknown-nto-qnx6.5.0/4.6.3\libgcc.a(e500crtrest64gpr.o)
 .bss           0x4806e64c        0x0 c:/program files/dspace rcphil 2016-a/compiler/qnx650_463/host/win32/x86/usr/bin/../lib/gcc/powerpc-unknown-nto-qnx6.5.0/4.6.3\libgcc.a(e500crtresx32gpr.o)
 .bss           0x4806e64c        0x0 c:/program files/dspace rcphil 2016-a/compiler/qnx650_463/host/win32/x86/usr/bin/../lib/gcc/powerpc-unknown-nto-qnx6.5.0/4.6.3\libgcc.a(e500crtresx64gpr.o)
 .bss           0x4806e64c        0x0 c:/program files/dspace rcphil 2016-a/compiler/qnx650_463/host/win32/x86/usr/bin/../lib/gcc/powerpc-unknown-nto-qnx6.5.0/4.6.3\libgcc.a(e500crtsav32gpr.o)
 .bss           0x4806e64c        0x0 c:/program files/dspace rcphil 2016-a/compiler/qnx650_463/host/win32/x86/usr/bin/../lib/gcc/powerpc-unknown-nto-qnx6.5.0/4.6.3\libgcc.a(e500crtsav64gpr.o)
 .bss           0x4806e64c        0x0 c:/program files/dspace rcphil 2016-a/compiler/qnx650_463/host/win32/x86/usr/bin/../lib/gcc/powerpc-unknown-nto-qnx6.5.0/4.6.3\libgcc.a(e500crtsav64gprctr.o)
 .bss           0x4806e64c        0x0 c:/program files/dspace rcphil 2016-a/compiler/qnx650_463/host/win32/x86/usr/bin/../lib/gcc/powerpc-unknown-nto-qnx6.5.0/4.6.3\libgcc.a(e500crtsavg32gpr.o)
 .bss           0x4806e64c        0x0 c:/program files/dspace rcphil 2016-a/compiler/qnx650_463/host/win32/x86/usr/bin/../lib/gcc/powerpc-unknown-nto-qnx6.5.0/4.6.3\libgcc.a(e500crtsavg64gpr.o)
 .bss           0x4806e64c        0x0 c:/program files/dspace rcphil 2016-a/compiler/qnx650_463/host/win32/x86/usr/bin/../lib/gcc/powerpc-unknown-nto-qnx6.5.0/4.6.3\libgcc.a(e500crtsavg64gprctr.o)
 .bss           0x4806e64c       0x92 c:/program files/dspace rcphil 2016-a/compiler/qnx650_463/host/win32/x86/usr/bin/../lib/gcc/powerpc-unknown-nto-qnx6.5.0/4.6.3\libgcc.a(unwind-dw2.o)
 *fill*         0x4806e6de        0x2 00
 .bss           0x4806e6e0       0x14 c:/program files/dspace rcphil 2016-a/compiler/qnx650_463/host/win32/x86/usr/bin/../lib/gcc/powerpc-unknown-nto-qnx6.5.0/4.6.3\libgcc.a(unwind-dw2-fde.o)
 .bss           0x4806e6f4        0x0 c:/program files/dspace rcphil 2016-a/compiler/qnx650_463/host/win32/x86/usr/bin/../lib/gcc/powerpc-unknown-nto-qnx6.5.0/4.6.3\libgcc.a(unwind-sjlj.o)
 .bss           0x4806e6f4        0x0 c:/program files/dspace rcphil 2016-a/compiler/qnx650_463/host/win32/x86/usr/bin/../lib/gcc/powerpc-unknown-nto-qnx6.5.0/4.6.3\libgcc.a(unwind-c.o)
 .bss           0x4806e6f4        0x8 c:/program files/dspace rcphil 2016-a/compiler/qnx650_463/host/win32/x86/usr/bin/../lib/gcc/powerpc-unknown-nto-qnx6.5.0/4.6.3\libgcc.a(emutls.o)
 .bss           0x4806e6fc        0x0 c:/program files/dspace rcphil 2016-a/compiler/qnx650_463/host/win32/x86/usr/bin/../lib/gcc/powerpc-unknown-nto-qnx6.5.0/4.6.3/crtend.o
 .bss           0x4806e6fc        0x0 C:\Program Files\dSPACE RCPHIL 2016-A\Compiler\QNX650_463\target\qnx6/ppcbe/lib/crtn.o
 *(COMMON)
                0x4806e6fc                . = ALIGN ((. != 0x0)?0x4:0x1)

.iplt           0x4806e700        0x0
 .iplt          0x00000000        0x0 C:\Program Files\dSPACE RCPHIL 2016-A\Compiler\QNX650_463\target\qnx6/ppcbe/lib/crt1.o
                0x4806e700                . = ALIGN (0x4)
                0x4806e700                . = ALIGN (0x4)
                0x4806e700                __end = .
                0x4806e700                _end = .
                0x4806e700                PROVIDE (end, .)
                0x4806e700                . = DATA_SEGMENT_END (.)

.stab
 *(.stab)

.stabstr
 *(.stabstr)

.stab.excl
 *(.stab.excl)

.stab.exclstr
 *(.stab.exclstr)

.stab.index
 *(.stab.index)

.stab.indexstr
 *(.stab.indexstr)

.comment        0x00000000      0x923
 *(.comment)
 .comment       0x00000000       0x12 c:/program files/dspace rcphil 2016-a/compiler/qnx650_463/host/win32/x86/usr/bin/../lib/gcc/powerpc-unknown-nto-qnx6.5.0/4.6.3/crtbegin.o
 .comment       0x00000012       0x11 SystemFunc.o07
                                 0x12 (size before relaxing)
 .comment       0x00000000       0x12 HandFunc.o07
 .comment       0x00000000       0x12 WAMFunc.o07
 .comment       0x00000000       0x12 AVSFunc.o07
 .comment       0x00000000       0x12 HandApp.o07
 .comment       0x00000000       0x12 WAMApp.o07
 .comment       0x00000000       0x12 WAM2App.o07
 .comment       0x00000000       0x12 AVSApp.o07
 .comment       0x00000000       0x12 XYZstageApp.o07
 .comment       0x00000000       0x12 LinkHomoMat.o07
 .comment       0x00000000       0x12 vec3DRot.o07
 .comment       0x00000000       0x12 vec3DInProduct.o07
 .comment       0x00000000       0x12 pmatrix.o07
 .comment       0x00000000       0x12 homoMat.o07
 .comment       0x00000000       0x12 myMatrix.o07
 .comment       0x00000000       0x12 Vector.o07
 .comment       0x00000000       0x12 Kalman.o07
 .comment       0x00000000       0x12 Predict3D.o07
 .comment       0x00000000       0x12 throwJnt2armJnt.o07
 .comment       0x00000000       0x12 storeData.o07
 .comment       0x00000000       0x12 TaskSet.o07
 .comment       0x00000000       0x12 handEnc2JntAng.o07
 .comment       0x00000000       0x12 rtiethernetdecode.o07
 .comment       0x00000000       0x12 handTraj.o07
 .comment       0x00000000       0x12 handJntAngLimit.o07
 .comment       0x00000000       0x12 handCtrl.o07
 .comment       0x00000000       0x12 handJntTrq2DA.o07
 .comment       0x00000000       0x12 handDALimit.o07
 .comment       0x00000000       0x12 rtiethernetencode.o07
 .comment       0x00000000       0x12 XYZstageTraj.o07
 .comment       0x00000000       0x12 XYZstageAngLimit.o07
 .comment       0x00000000       0x12 XYZstageEnc2JntAng.o07
 .comment       0x00000000       0x12 XYZstageCtrl.o07
 .comment       0x00000000       0x12 XYZstageTrq2DA.o07
 .comment       0x00000000       0x12 XYZstageDALimit.o07
 .comment       0x00000000       0x12 SystemSet.o07
 .comment       0x00000000       0x12 base.o07
 .comment       0x00000000       0x12 base_data.o07
 .comment       0x00000000       0x12 base_trc_ptr.o07
 .comment       0x00000000       0x12 rtGetInf.o07
 .comment       0x00000000       0x12 rtGetNaN.o07
 .comment       0x00000000       0x12 rt_i32zcfcn.o07
 .comment       0x00000000       0x12 rt_matrx.o07
 .comment       0x00000000       0x12 rt_nonfinite.o07
 .comment       0x00000000       0x12 rt_printf.o07
 .comment       0x00000000       0x12 rti_sim_engine.o07
 .comment       0x00000000       0x12 rti_init_c.o07
 .comment       0x00000000       0x12 rt_sim.o07
 .comment       0x00000000       0x12 rti_assert.o07
 .comment       0x00000000       0x12 C:\Program Files\dSPACE RCPHIL 2016-A\DS1007\Lib\librtversion.a(RtVersion.o)
 .comment       0x00000000       0x12 C:\Program Files\dSPACE RCPHIL 2016-A\DS1007\Lib\librtglobals.a(DsEESPort.o)
 .comment       0x00000023       0x12 C:\Program Files\dSPACE RCPHIL 2016-A\DS1007\Lib\libm_fastpow.a(w_pow.o)
 .comment       0x00000035       0x12 C:\Program Files\dSPACE RCPHIL 2016-A\DS1007\Lib\libm_fastpow.a(e_pow.o)
 .comment       0x00000047       0x12 C:\Program Files\dSPACE RCPHIL 2016-A\DS1007\Lib\libm_fastpow.a(s_scalbn.o)
 .comment       0x00000059       0x12 c:/program files/dspace rcphil 2016-a/compiler/qnx650_463/host/win32/x86/usr/bin/../lib/gcc/powerpc-unknown-nto-qnx6.5.0/4.6.3\libgcc.a(_muldi3.o)
 .comment       0x0000006b       0x12 c:/program files/dspace rcphil 2016-a/compiler/qnx650_463/host/win32/x86/usr/bin/../lib/gcc/powerpc-unknown-nto-qnx6.5.0/4.6.3\libgcc.a(_negdi2.o)
 .comment       0x0000007d       0x12 c:/program files/dspace rcphil 2016-a/compiler/qnx650_463/host/win32/x86/usr/bin/../lib/gcc/powerpc-unknown-nto-qnx6.5.0/4.6.3\libgcc.a(_lshrdi3.o)
 .comment       0x0000008f       0x12 c:/program files/dspace rcphil 2016-a/compiler/qnx650_463/host/win32/x86/usr/bin/../lib/gcc/powerpc-unknown-nto-qnx6.5.0/4.6.3\libgcc.a(_ashldi3.o)
 .comment       0x000000a1       0x12 c:/program files/dspace rcphil 2016-a/compiler/qnx650_463/host/win32/x86/usr/bin/../lib/gcc/powerpc-unknown-nto-qnx6.5.0/4.6.3\libgcc.a(_ashrdi3.o)
 .comment       0x000000b3       0x12 c:/program files/dspace rcphil 2016-a/compiler/qnx650_463/host/win32/x86/usr/bin/../lib/gcc/powerpc-unknown-nto-qnx6.5.0/4.6.3\libgcc.a(_cmpdi2.o)
 .comment       0x000000c5       0x12 c:/program files/dspace rcphil 2016-a/compiler/qnx650_463/host/win32/x86/usr/bin/../lib/gcc/powerpc-unknown-nto-qnx6.5.0/4.6.3\libgcc.a(_ucmpdi2.o)
 .comment       0x000000d7       0x12 c:/program files/dspace rcphil 2016-a/compiler/qnx650_463/host/win32/x86/usr/bin/../lib/gcc/powerpc-unknown-nto-qnx6.5.0/4.6.3\libgcc.a(_clear_cache.o)
 .comment       0x000000e9       0x12 c:/program files/dspace rcphil 2016-a/compiler/qnx650_463/host/win32/x86/usr/bin/../lib/gcc/powerpc-unknown-nto-qnx6.5.0/4.6.3\libgcc.a(_enable_execute_stack.o)
 .comment       0x000000fb       0x12 c:/program files/dspace rcphil 2016-a/compiler/qnx650_463/host/win32/x86/usr/bin/../lib/gcc/powerpc-unknown-nto-qnx6.5.0/4.6.3\libgcc.a(_trampoline.o)
 .comment       0x0000010d       0x12 c:/program files/dspace rcphil 2016-a/compiler/qnx650_463/host/win32/x86/usr/bin/../lib/gcc/powerpc-unknown-nto-qnx6.5.0/4.6.3\libgcc.a(__main.o)
 .comment       0x0000011f       0x12 c:/program files/dspace rcphil 2016-a/compiler/qnx650_463/host/win32/x86/usr/bin/../lib/gcc/powerpc-unknown-nto-qnx6.5.0/4.6.3\libgcc.a(_absvsi2.o)
 .comment       0x00000131       0x12 c:/program files/dspace rcphil 2016-a/compiler/qnx650_463/host/win32/x86/usr/bin/../lib/gcc/powerpc-unknown-nto-qnx6.5.0/4.6.3\libgcc.a(_absvdi2.o)
 .comment       0x00000143       0x12 c:/program files/dspace rcphil 2016-a/compiler/qnx650_463/host/win32/x86/usr/bin/../lib/gcc/powerpc-unknown-nto-qnx6.5.0/4.6.3\libgcc.a(_addvsi3.o)
 .comment       0x00000155       0x12 c:/program files/dspace rcphil 2016-a/compiler/qnx650_463/host/win32/x86/usr/bin/../lib/gcc/powerpc-unknown-nto-qnx6.5.0/4.6.3\libgcc.a(_addvdi3.o)
 .comment       0x00000167       0x12 c:/program files/dspace rcphil 2016-a/compiler/qnx650_463/host/win32/x86/usr/bin/../lib/gcc/powerpc-unknown-nto-qnx6.5.0/4.6.3\libgcc.a(_subvsi3.o)
 .comment       0x00000179       0x12 c:/program files/dspace rcphil 2016-a/compiler/qnx650_463/host/win32/x86/usr/bin/../lib/gcc/powerpc-unknown-nto-qnx6.5.0/4.6.3\libgcc.a(_subvdi3.o)
 .comment       0x0000018b       0x12 c:/program files/dspace rcphil 2016-a/compiler/qnx650_463/host/win32/x86/usr/bin/../lib/gcc/powerpc-unknown-nto-qnx6.5.0/4.6.3\libgcc.a(_mulvsi3.o)
 .comment       0x0000019d       0x12 c:/program files/dspace rcphil 2016-a/compiler/qnx650_463/host/win32/x86/usr/bin/../lib/gcc/powerpc-unknown-nto-qnx6.5.0/4.6.3\libgcc.a(_mulvdi3.o)
 .comment       0x000001af       0x12 c:/program files/dspace rcphil 2016-a/compiler/qnx650_463/host/win32/x86/usr/bin/../lib/gcc/powerpc-unknown-nto-qnx6.5.0/4.6.3\libgcc.a(_negvsi2.o)
 .comment       0x000001c1       0x12 c:/program files/dspace rcphil 2016-a/compiler/qnx650_463/host/win32/x86/usr/bin/../lib/gcc/powerpc-unknown-nto-qnx6.5.0/4.6.3\libgcc.a(_negvdi2.o)
 .comment       0x000001d3       0x12 c:/program files/dspace rcphil 2016-a/compiler/qnx650_463/host/win32/x86/usr/bin/../lib/gcc/powerpc-unknown-nto-qnx6.5.0/4.6.3\libgcc.a(_ctors.o)
 .comment       0x000001e5       0x12 c:/program files/dspace rcphil 2016-a/compiler/qnx650_463/host/win32/x86/usr/bin/../lib/gcc/powerpc-unknown-nto-qnx6.5.0/4.6.3\libgcc.a(_ffssi2.o)
 .comment       0x000001f7       0x12 c:/program files/dspace rcphil 2016-a/compiler/qnx650_463/host/win32/x86/usr/bin/../lib/gcc/powerpc-unknown-nto-qnx6.5.0/4.6.3\libgcc.a(_ffsdi2.o)
 .comment       0x00000209       0x12 c:/program files/dspace rcphil 2016-a/compiler/qnx650_463/host/win32/x86/usr/bin/../lib/gcc/powerpc-unknown-nto-qnx6.5.0/4.6.3\libgcc.a(_clz.o)
 .comment       0x0000021b       0x12 c:/program files/dspace rcphil 2016-a/compiler/qnx650_463/host/win32/x86/usr/bin/../lib/gcc/powerpc-unknown-nto-qnx6.5.0/4.6.3\libgcc.a(_clzsi2.o)
 .comment       0x0000022d       0x12 c:/program files/dspace rcphil 2016-a/compiler/qnx650_463/host/win32/x86/usr/bin/../lib/gcc/powerpc-unknown-nto-qnx6.5.0/4.6.3\libgcc.a(_clzdi2.o)
 .comment       0x0000023f       0x12 c:/program files/dspace rcphil 2016-a/compiler/qnx650_463/host/win32/x86/usr/bin/../lib/gcc/powerpc-unknown-nto-qnx6.5.0/4.6.3\libgcc.a(_ctzsi2.o)
 .comment       0x00000251       0x12 c:/program files/dspace rcphil 2016-a/compiler/qnx650_463/host/win32/x86/usr/bin/../lib/gcc/powerpc-unknown-nto-qnx6.5.0/4.6.3\libgcc.a(_ctzdi2.o)
 .comment       0x00000263       0x12 c:/program files/dspace rcphil 2016-a/compiler/qnx650_463/host/win32/x86/usr/bin/../lib/gcc/powerpc-unknown-nto-qnx6.5.0/4.6.3\libgcc.a(_popcount_tab.o)
 .comment       0x00000275       0x12 c:/program files/dspace rcphil 2016-a/compiler/qnx650_463/host/win32/x86/usr/bin/../lib/gcc/powerpc-unknown-nto-qnx6.5.0/4.6.3\libgcc.a(_popcountsi2.o)
 .comment       0x00000287       0x12 c:/program files/dspace rcphil 2016-a/compiler/qnx650_463/host/win32/x86/usr/bin/../lib/gcc/powerpc-unknown-nto-qnx6.5.0/4.6.3\libgcc.a(_popcountdi2.o)
 .comment       0x00000299       0x12 c:/program files/dspace rcphil 2016-a/compiler/qnx650_463/host/win32/x86/usr/bin/../lib/gcc/powerpc-unknown-nto-qnx6.5.0/4.6.3\libgcc.a(_paritysi2.o)
 .comment       0x000002ab       0x12 c:/program files/dspace rcphil 2016-a/compiler/qnx650_463/host/win32/x86/usr/bin/../lib/gcc/powerpc-unknown-nto-qnx6.5.0/4.6.3\libgcc.a(_paritydi2.o)
 .comment       0x000002bd       0x12 c:/program files/dspace rcphil 2016-a/compiler/qnx650_463/host/win32/x86/usr/bin/../lib/gcc/powerpc-unknown-nto-qnx6.5.0/4.6.3\libgcc.a(_powisf2.o)
 .comment       0x000002cf       0x12 c:/program files/dspace rcphil 2016-a/compiler/qnx650_463/host/win32/x86/usr/bin/../lib/gcc/powerpc-unknown-nto-qnx6.5.0/4.6.3\libgcc.a(_powidf2.o)
 .comment       0x000002e1       0x12 c:/program files/dspace rcphil 2016-a/compiler/qnx650_463/host/win32/x86/usr/bin/../lib/gcc/powerpc-unknown-nto-qnx6.5.0/4.6.3\libgcc.a(_powixf2.o)
 .comment       0x000002f3       0x12 c:/program files/dspace rcphil 2016-a/compiler/qnx650_463/host/win32/x86/usr/bin/../lib/gcc/powerpc-unknown-nto-qnx6.5.0/4.6.3\libgcc.a(_powitf2.o)
 .comment       0x00000305       0x12 c:/program files/dspace rcphil 2016-a/compiler/qnx650_463/host/win32/x86/usr/bin/../lib/gcc/powerpc-unknown-nto-qnx6.5.0/4.6.3\libgcc.a(_mulsc3.o)
 .comment       0x00000317       0x12 c:/program files/dspace rcphil 2016-a/compiler/qnx650_463/host/win32/x86/usr/bin/../lib/gcc/powerpc-unknown-nto-qnx6.5.0/4.6.3\libgcc.a(_muldc3.o)
 .comment       0x00000329       0x12 c:/program files/dspace rcphil 2016-a/compiler/qnx650_463/host/win32/x86/usr/bin/../lib/gcc/powerpc-unknown-nto-qnx6.5.0/4.6.3\libgcc.a(_mulxc3.o)
 .comment       0x0000033b       0x12 c:/program files/dspace rcphil 2016-a/compiler/qnx650_463/host/win32/x86/usr/bin/../lib/gcc/powerpc-unknown-nto-qnx6.5.0/4.6.3\libgcc.a(_multc3.o)
 .comment       0x0000034d       0x12 c:/program files/dspace rcphil 2016-a/compiler/qnx650_463/host/win32/x86/usr/bin/../lib/gcc/powerpc-unknown-nto-qnx6.5.0/4.6.3\libgcc.a(_divsc3.o)
 .comment       0x0000035f       0x12 c:/program files/dspace rcphil 2016-a/compiler/qnx650_463/host/win32/x86/usr/bin/../lib/gcc/powerpc-unknown-nto-qnx6.5.0/4.6.3\libgcc.a(_divdc3.o)
 .comment       0x00000371       0x12 c:/program files/dspace rcphil 2016-a/compiler/qnx650_463/host/win32/x86/usr/bin/../lib/gcc/powerpc-unknown-nto-qnx6.5.0/4.6.3\libgcc.a(_divxc3.o)
 .comment       0x00000383       0x12 c:/program files/dspace rcphil 2016-a/compiler/qnx650_463/host/win32/x86/usr/bin/../lib/gcc/powerpc-unknown-nto-qnx6.5.0/4.6.3\libgcc.a(_divtc3.o)
 .comment       0x00000395       0x12 c:/program files/dspace rcphil 2016-a/compiler/qnx650_463/host/win32/x86/usr/bin/../lib/gcc/powerpc-unknown-nto-qnx6.5.0/4.6.3\libgcc.a(_bswapsi2.o)
 .comment       0x000003a7       0x12 c:/program files/dspace rcphil 2016-a/compiler/qnx650_463/host/win32/x86/usr/bin/../lib/gcc/powerpc-unknown-nto-qnx6.5.0/4.6.3\libgcc.a(_bswapdi2.o)
 .comment       0x000003b9       0x12 c:/program files/dspace rcphil 2016-a/compiler/qnx650_463/host/win32/x86/usr/bin/../lib/gcc/powerpc-unknown-nto-qnx6.5.0/4.6.3\libgcc.a(_fixunssfsi.o)
 .comment       0x000003cb       0x12 c:/program files/dspace rcphil 2016-a/compiler/qnx650_463/host/win32/x86/usr/bin/../lib/gcc/powerpc-unknown-nto-qnx6.5.0/4.6.3\libgcc.a(_fixunsdfsi.o)
 .comment       0x000003dd       0x12 c:/program files/dspace rcphil 2016-a/compiler/qnx650_463/host/win32/x86/usr/bin/../lib/gcc/powerpc-unknown-nto-qnx6.5.0/4.6.3\libgcc.a(_fixunsxfsi.o)
 .comment       0x000003ef       0x12 c:/program files/dspace rcphil 2016-a/compiler/qnx650_463/host/win32/x86/usr/bin/../lib/gcc/powerpc-unknown-nto-qnx6.5.0/4.6.3\libgcc.a(_fixsfdi.o)
 .comment       0x00000401       0x12 c:/program files/dspace rcphil 2016-a/compiler/qnx650_463/host/win32/x86/usr/bin/../lib/gcc/powerpc-unknown-nto-qnx6.5.0/4.6.3\libgcc.a(_fixdfdi.o)
 .comment       0x00000413       0x12 c:/program files/dspace rcphil 2016-a/compiler/qnx650_463/host/win32/x86/usr/bin/../lib/gcc/powerpc-unknown-nto-qnx6.5.0/4.6.3\libgcc.a(_fixxfdi.o)
 .comment       0x00000425       0x12 c:/program files/dspace rcphil 2016-a/compiler/qnx650_463/host/win32/x86/usr/bin/../lib/gcc/powerpc-unknown-nto-qnx6.5.0/4.6.3\libgcc.a(_fixtfdi.o)
 .comment       0x00000437       0x12 c:/program files/dspace rcphil 2016-a/compiler/qnx650_463/host/win32/x86/usr/bin/../lib/gcc/powerpc-unknown-nto-qnx6.5.0/4.6.3\libgcc.a(_fixunssfdi.o)
 .comment       0x00000449       0x12 c:/program files/dspace rcphil 2016-a/compiler/qnx650_463/host/win32/x86/usr/bin/../lib/gcc/powerpc-unknown-nto-qnx6.5.0/4.6.3\libgcc.a(_fixunsdfdi.o)
 .comment       0x0000045b       0x12 c:/program files/dspace rcphil 2016-a/compiler/qnx650_463/host/win32/x86/usr/bin/../lib/gcc/powerpc-unknown-nto-qnx6.5.0/4.6.3\libgcc.a(_fixunsxfdi.o)
 .comment       0x0000046d       0x12 c:/program files/dspace rcphil 2016-a/compiler/qnx650_463/host/win32/x86/usr/bin/../lib/gcc/powerpc-unknown-nto-qnx6.5.0/4.6.3\libgcc.a(_fixunstfdi.o)
 .comment       0x0000047f       0x12 c:/program files/dspace rcphil 2016-a/compiler/qnx650_463/host/win32/x86/usr/bin/../lib/gcc/powerpc-unknown-nto-qnx6.5.0/4.6.3\libgcc.a(_floatdisf.o)
 .comment       0x00000491       0x12 c:/program files/dspace rcphil 2016-a/compiler/qnx650_463/host/win32/x86/usr/bin/../lib/gcc/powerpc-unknown-nto-qnx6.5.0/4.6.3\libgcc.a(_floatdidf.o)
 .comment       0x000004a3       0x12 c:/program files/dspace rcphil 2016-a/compiler/qnx650_463/host/win32/x86/usr/bin/../lib/gcc/powerpc-unknown-nto-qnx6.5.0/4.6.3\libgcc.a(_floatdixf.o)
 .comment       0x000004b5       0x12 c:/program files/dspace rcphil 2016-a/compiler/qnx650_463/host/win32/x86/usr/bin/../lib/gcc/powerpc-unknown-nto-qnx6.5.0/4.6.3\libgcc.a(_floatditf.o)
 .comment       0x000004c7       0x12 c:/program files/dspace rcphil 2016-a/compiler/qnx650_463/host/win32/x86/usr/bin/../lib/gcc/powerpc-unknown-nto-qnx6.5.0/4.6.3\libgcc.a(_floatundisf.o)
 .comment       0x000004d9       0x12 c:/program files/dspace rcphil 2016-a/compiler/qnx650_463/host/win32/x86/usr/bin/../lib/gcc/powerpc-unknown-nto-qnx6.5.0/4.6.3\libgcc.a(_floatundidf.o)
 .comment       0x000004eb       0x12 c:/program files/dspace rcphil 2016-a/compiler/qnx650_463/host/win32/x86/usr/bin/../lib/gcc/powerpc-unknown-nto-qnx6.5.0/4.6.3\libgcc.a(_floatundixf.o)
 .comment       0x000004fd       0x12 c:/program files/dspace rcphil 2016-a/compiler/qnx650_463/host/win32/x86/usr/bin/../lib/gcc/powerpc-unknown-nto-qnx6.5.0/4.6.3\libgcc.a(_floatunditf.o)
 .comment       0x0000050f       0x12 c:/program files/dspace rcphil 2016-a/compiler/qnx650_463/host/win32/x86/usr/bin/../lib/gcc/powerpc-unknown-nto-qnx6.5.0/4.6.3\libgcc.a(_eprintf.o)
 .comment       0x00000521       0x12 c:/program files/dspace rcphil 2016-a/compiler/qnx650_463/host/win32/x86/usr/bin/../lib/gcc/powerpc-unknown-nto-qnx6.5.0/4.6.3\libgcc.a(__gcc_bcmp.o)
 .comment       0x00000533       0x12 c:/program files/dspace rcphil 2016-a/compiler/qnx650_463/host/win32/x86/usr/bin/../lib/gcc/powerpc-unknown-nto-qnx6.5.0/4.6.3\libgcc.a(_divdi3.o)
 .comment       0x00000545       0x12 c:/program files/dspace rcphil 2016-a/compiler/qnx650_463/host/win32/x86/usr/bin/../lib/gcc/powerpc-unknown-nto-qnx6.5.0/4.6.3\libgcc.a(_moddi3.o)
 .comment       0x00000557       0x12 c:/program files/dspace rcphil 2016-a/compiler/qnx650_463/host/win32/x86/usr/bin/../lib/gcc/powerpc-unknown-nto-qnx6.5.0/4.6.3\libgcc.a(_udivdi3.o)
 .comment       0x00000569       0x12 c:/program files/dspace rcphil 2016-a/compiler/qnx650_463/host/win32/x86/usr/bin/../lib/gcc/powerpc-unknown-nto-qnx6.5.0/4.6.3\libgcc.a(_umoddi3.o)
 .comment       0x0000057b       0x12 c:/program files/dspace rcphil 2016-a/compiler/qnx650_463/host/win32/x86/usr/bin/../lib/gcc/powerpc-unknown-nto-qnx6.5.0/4.6.3\libgcc.a(_udiv_w_sdiv.o)
 .comment       0x0000058d       0x12 c:/program files/dspace rcphil 2016-a/compiler/qnx650_463/host/win32/x86/usr/bin/../lib/gcc/powerpc-unknown-nto-qnx6.5.0/4.6.3\libgcc.a(_udivmoddi4.o)
 .comment       0x0000059f       0x12 c:/program files/dspace rcphil 2016-a/compiler/qnx650_463/host/win32/x86/usr/bin/../lib/gcc/powerpc-unknown-nto-qnx6.5.0/4.6.3\libgcc.a(_pack_sf.o)
 .comment       0x000005b1       0x12 c:/program files/dspace rcphil 2016-a/compiler/qnx650_463/host/win32/x86/usr/bin/../lib/gcc/powerpc-unknown-nto-qnx6.5.0/4.6.3\libgcc.a(_unpack_sf.o)
 .comment       0x000005c3       0x12 c:/program files/dspace rcphil 2016-a/compiler/qnx650_463/host/win32/x86/usr/bin/../lib/gcc/powerpc-unknown-nto-qnx6.5.0/4.6.3\libgcc.a(_addsub_sf.o)
 .comment       0x000005d5       0x12 c:/program files/dspace rcphil 2016-a/compiler/qnx650_463/host/win32/x86/usr/bin/../lib/gcc/powerpc-unknown-nto-qnx6.5.0/4.6.3\libgcc.a(_mul_sf.o)
 .comment       0x000005e7       0x12 c:/program files/dspace rcphil 2016-a/compiler/qnx650_463/host/win32/x86/usr/bin/../lib/gcc/powerpc-unknown-nto-qnx6.5.0/4.6.3\libgcc.a(_div_sf.o)
 .comment       0x000005f9       0x12 c:/program files/dspace rcphil 2016-a/compiler/qnx650_463/host/win32/x86/usr/bin/../lib/gcc/powerpc-unknown-nto-qnx6.5.0/4.6.3\libgcc.a(_fpcmp_parts_sf.o)
 .comment       0x0000060b       0x12 c:/program files/dspace rcphil 2016-a/compiler/qnx650_463/host/win32/x86/usr/bin/../lib/gcc/powerpc-unknown-nto-qnx6.5.0/4.6.3\libgcc.a(_compare_sf.o)
 .comment       0x0000061d       0x12 c:/program files/dspace rcphil 2016-a/compiler/qnx650_463/host/win32/x86/usr/bin/../lib/gcc/powerpc-unknown-nto-qnx6.5.0/4.6.3\libgcc.a(_eq_sf.o)
 .comment       0x0000062f       0x12 c:/program files/dspace rcphil 2016-a/compiler/qnx650_463/host/win32/x86/usr/bin/../lib/gcc/powerpc-unknown-nto-qnx6.5.0/4.6.3\libgcc.a(_ne_sf.o)
 .comment       0x00000641       0x12 c:/program files/dspace rcphil 2016-a/compiler/qnx650_463/host/win32/x86/usr/bin/../lib/gcc/powerpc-unknown-nto-qnx6.5.0/4.6.3\libgcc.a(_gt_sf.o)
 .comment       0x00000653       0x12 c:/program files/dspace rcphil 2016-a/compiler/qnx650_463/host/win32/x86/usr/bin/../lib/gcc/powerpc-unknown-nto-qnx6.5.0/4.6.3\libgcc.a(_ge_sf.o)
 .comment       0x00000665       0x12 c:/program files/dspace rcphil 2016-a/compiler/qnx650_463/host/win32/x86/usr/bin/../lib/gcc/powerpc-unknown-nto-qnx6.5.0/4.6.3\libgcc.a(_lt_sf.o)
 .comment       0x00000677       0x12 c:/program files/dspace rcphil 2016-a/compiler/qnx650_463/host/win32/x86/usr/bin/../lib/gcc/powerpc-unknown-nto-qnx6.5.0/4.6.3\libgcc.a(_le_sf.o)
 .comment       0x00000689       0x12 c:/program files/dspace rcphil 2016-a/compiler/qnx650_463/host/win32/x86/usr/bin/../lib/gcc/powerpc-unknown-nto-qnx6.5.0/4.6.3\libgcc.a(_unord_sf.o)
 .comment       0x0000069b       0x12 c:/program files/dspace rcphil 2016-a/compiler/qnx650_463/host/win32/x86/usr/bin/../lib/gcc/powerpc-unknown-nto-qnx6.5.0/4.6.3\libgcc.a(_si_to_sf.o)
 .comment       0x000006ad       0x12 c:/program files/dspace rcphil 2016-a/compiler/qnx650_463/host/win32/x86/usr/bin/../lib/gcc/powerpc-unknown-nto-qnx6.5.0/4.6.3\libgcc.a(_sf_to_si.o)
 .comment       0x000006bf       0x12 c:/program files/dspace rcphil 2016-a/compiler/qnx650_463/host/win32/x86/usr/bin/../lib/gcc/powerpc-unknown-nto-qnx6.5.0/4.6.3\libgcc.a(_negate_sf.o)
 .comment       0x000006d1       0x12 c:/program files/dspace rcphil 2016-a/compiler/qnx650_463/host/win32/x86/usr/bin/../lib/gcc/powerpc-unknown-nto-qnx6.5.0/4.6.3\libgcc.a(_make_sf.o)
 .comment       0x000006e3       0x12 c:/program files/dspace rcphil 2016-a/compiler/qnx650_463/host/win32/x86/usr/bin/../lib/gcc/powerpc-unknown-nto-qnx6.5.0/4.6.3\libgcc.a(_sf_to_df.o)
 .comment       0x000006f5       0x12 c:/program files/dspace rcphil 2016-a/compiler/qnx650_463/host/win32/x86/usr/bin/../lib/gcc/powerpc-unknown-nto-qnx6.5.0/4.6.3\libgcc.a(_thenan_sf.o)
 .comment       0x00000707       0x12 c:/program files/dspace rcphil 2016-a/compiler/qnx650_463/host/win32/x86/usr/bin/../lib/gcc/powerpc-unknown-nto-qnx6.5.0/4.6.3\libgcc.a(_sf_to_usi.o)
 .comment       0x00000719       0x12 c:/program files/dspace rcphil 2016-a/compiler/qnx650_463/host/win32/x86/usr/bin/../lib/gcc/powerpc-unknown-nto-qnx6.5.0/4.6.3\libgcc.a(_usi_to_sf.o)
 .comment       0x0000072b       0x12 c:/program files/dspace rcphil 2016-a/compiler/qnx650_463/host/win32/x86/usr/bin/../lib/gcc/powerpc-unknown-nto-qnx6.5.0/4.6.3\libgcc.a(_pack_df.o)
 .comment       0x0000073d       0x12 c:/program files/dspace rcphil 2016-a/compiler/qnx650_463/host/win32/x86/usr/bin/../lib/gcc/powerpc-unknown-nto-qnx6.5.0/4.6.3\libgcc.a(_unpack_df.o)
 .comment       0x0000074f       0x12 c:/program files/dspace rcphil 2016-a/compiler/qnx650_463/host/win32/x86/usr/bin/../lib/gcc/powerpc-unknown-nto-qnx6.5.0/4.6.3\libgcc.a(_addsub_df.o)
 .comment       0x00000761       0x12 c:/program files/dspace rcphil 2016-a/compiler/qnx650_463/host/win32/x86/usr/bin/../lib/gcc/powerpc-unknown-nto-qnx6.5.0/4.6.3\libgcc.a(_mul_df.o)
 .comment       0x00000773       0x12 c:/program files/dspace rcphil 2016-a/compiler/qnx650_463/host/win32/x86/usr/bin/../lib/gcc/powerpc-unknown-nto-qnx6.5.0/4.6.3\libgcc.a(_div_df.o)
 .comment       0x00000785       0x12 c:/program files/dspace rcphil 2016-a/compiler/qnx650_463/host/win32/x86/usr/bin/../lib/gcc/powerpc-unknown-nto-qnx6.5.0/4.6.3\libgcc.a(_fpcmp_parts_df.o)
 .comment       0x00000797       0x12 c:/program files/dspace rcphil 2016-a/compiler/qnx650_463/host/win32/x86/usr/bin/../lib/gcc/powerpc-unknown-nto-qnx6.5.0/4.6.3\libgcc.a(_compare_df.o)
 .comment       0x000007a9       0x12 c:/program files/dspace rcphil 2016-a/compiler/qnx650_463/host/win32/x86/usr/bin/../lib/gcc/powerpc-unknown-nto-qnx6.5.0/4.6.3\libgcc.a(_eq_df.o)
 .comment       0x000007bb       0x12 c:/program files/dspace rcphil 2016-a/compiler/qnx650_463/host/win32/x86/usr/bin/../lib/gcc/powerpc-unknown-nto-qnx6.5.0/4.6.3\libgcc.a(_ne_df.o)
 .comment       0x000007cd       0x12 c:/program files/dspace rcphil 2016-a/compiler/qnx650_463/host/win32/x86/usr/bin/../lib/gcc/powerpc-unknown-nto-qnx6.5.0/4.6.3\libgcc.a(_gt_df.o)
 .comment       0x000007df       0x12 c:/program files/dspace rcphil 2016-a/compiler/qnx650_463/host/win32/x86/usr/bin/../lib/gcc/powerpc-unknown-nto-qnx6.5.0/4.6.3\libgcc.a(_ge_df.o)
 .comment       0x000007f1       0x12 c:/program files/dspace rcphil 2016-a/compiler/qnx650_463/host/win32/x86/usr/bin/../lib/gcc/powerpc-unknown-nto-qnx6.5.0/4.6.3\libgcc.a(_lt_df.o)
 .comment       0x00000803       0x12 c:/program files/dspace rcphil 2016-a/compiler/qnx650_463/host/win32/x86/usr/bin/../lib/gcc/powerpc-unknown-nto-qnx6.5.0/4.6.3\libgcc.a(_le_df.o)
 .comment       0x00000815       0x12 c:/program files/dspace rcphil 2016-a/compiler/qnx650_463/host/win32/x86/usr/bin/../lib/gcc/powerpc-unknown-nto-qnx6.5.0/4.6.3\libgcc.a(_unord_df.o)
 .comment       0x00000827       0x12 c:/program files/dspace rcphil 2016-a/compiler/qnx650_463/host/win32/x86/usr/bin/../lib/gcc/powerpc-unknown-nto-qnx6.5.0/4.6.3\libgcc.a(_si_to_df.o)
 .comment       0x00000839       0x12 c:/program files/dspace rcphil 2016-a/compiler/qnx650_463/host/win32/x86/usr/bin/../lib/gcc/powerpc-unknown-nto-qnx6.5.0/4.6.3\libgcc.a(_df_to_si.o)
 .comment       0x0000084b       0x12 c:/program files/dspace rcphil 2016-a/compiler/qnx650_463/host/win32/x86/usr/bin/../lib/gcc/powerpc-unknown-nto-qnx6.5.0/4.6.3\libgcc.a(_negate_df.o)
 .comment       0x0000085d       0x12 c:/program files/dspace rcphil 2016-a/compiler/qnx650_463/host/win32/x86/usr/bin/../lib/gcc/powerpc-unknown-nto-qnx6.5.0/4.6.3\libgcc.a(_make_df.o)
 .comment       0x0000086f       0x12 c:/program files/dspace rcphil 2016-a/compiler/qnx650_463/host/win32/x86/usr/bin/../lib/gcc/powerpc-unknown-nto-qnx6.5.0/4.6.3\libgcc.a(_df_to_sf.o)
 .comment       0x00000881       0x12 c:/program files/dspace rcphil 2016-a/compiler/qnx650_463/host/win32/x86/usr/bin/../lib/gcc/powerpc-unknown-nto-qnx6.5.0/4.6.3\libgcc.a(_thenan_df.o)
 .comment       0x00000893       0x12 c:/program files/dspace rcphil 2016-a/compiler/qnx650_463/host/win32/x86/usr/bin/../lib/gcc/powerpc-unknown-nto-qnx6.5.0/4.6.3\libgcc.a(_df_to_usi.o)
 .comment       0x000008a5       0x12 c:/program files/dspace rcphil 2016-a/compiler/qnx650_463/host/win32/x86/usr/bin/../lib/gcc/powerpc-unknown-nto-qnx6.5.0/4.6.3\libgcc.a(_usi_to_df.o)
 .comment       0x000008b7       0x12 c:/program files/dspace rcphil 2016-a/compiler/qnx650_463/host/win32/x86/usr/bin/../lib/gcc/powerpc-unknown-nto-qnx6.5.0/4.6.3\libgcc.a(unwind-dw2.o)
 .comment       0x000008c9       0x12 c:/program files/dspace rcphil 2016-a/compiler/qnx650_463/host/win32/x86/usr/bin/../lib/gcc/powerpc-unknown-nto-qnx6.5.0/4.6.3\libgcc.a(unwind-dw2-fde.o)
 .comment       0x000008db       0x12 c:/program files/dspace rcphil 2016-a/compiler/qnx650_463/host/win32/x86/usr/bin/../lib/gcc/powerpc-unknown-nto-qnx6.5.0/4.6.3\libgcc.a(unwind-sjlj.o)
 .comment       0x000008ed       0x12 c:/program files/dspace rcphil 2016-a/compiler/qnx650_463/host/win32/x86/usr/bin/../lib/gcc/powerpc-unknown-nto-qnx6.5.0/4.6.3\libgcc.a(unwind-c.o)
 .comment       0x000008ff       0x12 c:/program files/dspace rcphil 2016-a/compiler/qnx650_463/host/win32/x86/usr/bin/../lib/gcc/powerpc-unknown-nto-qnx6.5.0/4.6.3\libgcc.a(emutls.o)
 .comment       0x00000911       0x12 c:/program files/dspace rcphil 2016-a/compiler/qnx650_463/host/win32/x86/usr/bin/../lib/gcc/powerpc-unknown-nto-qnx6.5.0/4.6.3/crtend.o

.PPC.EMB.apuinfo
                0x00000000       0x18
 .PPC.EMB.apuinfo
                0x00000000       0x18 Kalman.o07
 .PPC.EMB.apuinfo
                0x00000018       0x18 rtiethernetdecode.o07
 .PPC.EMB.apuinfo
                0x00000030       0x18 rtiethernetencode.o07
 .PPC.EMB.apuinfo
                0x00000048       0x18 base.o07
 .PPC.EMB.apuinfo
                0x00000060       0x18 rt_i32zcfcn.o07
 .PPC.EMB.apuinfo
                0x00000078       0x18 rt_matrx.o07

.debug
 *(.debug)

.line
 *(.line)

.debug_srcinfo
 *(.debug_srcinfo)

.debug_sfnames
 *(.debug_sfnames)

.debug_aranges  0x00000000      0xd40
 *(.debug_aranges)
 .debug_aranges
                0x00000000       0x20 c:/program files/dspace rcphil 2016-a/compiler/qnx650_463/host/win32/x86/usr/bin/../lib/gcc/powerpc-unknown-nto-qnx6.5.0/4.6.3\libgcc.a(_muldi3.o)
 .debug_aranges
                0x00000020       0x20 c:/program files/dspace rcphil 2016-a/compiler/qnx650_463/host/win32/x86/usr/bin/../lib/gcc/powerpc-unknown-nto-qnx6.5.0/4.6.3\libgcc.a(_negdi2.o)
 .debug_aranges
                0x00000040       0x20 c:/program files/dspace rcphil 2016-a/compiler/qnx650_463/host/win32/x86/usr/bin/../lib/gcc/powerpc-unknown-nto-qnx6.5.0/4.6.3\libgcc.a(_lshrdi3.o)
 .debug_aranges
                0x00000060       0x20 c:/program files/dspace rcphil 2016-a/compiler/qnx650_463/host/win32/x86/usr/bin/../lib/gcc/powerpc-unknown-nto-qnx6.5.0/4.6.3\libgcc.a(_ashldi3.o)
 .debug_aranges
                0x00000080       0x20 c:/program files/dspace rcphil 2016-a/compiler/qnx650_463/host/win32/x86/usr/bin/../lib/gcc/powerpc-unknown-nto-qnx6.5.0/4.6.3\libgcc.a(_ashrdi3.o)
 .debug_aranges
                0x000000a0       0x20 c:/program files/dspace rcphil 2016-a/compiler/qnx650_463/host/win32/x86/usr/bin/../lib/gcc/powerpc-unknown-nto-qnx6.5.0/4.6.3\libgcc.a(_cmpdi2.o)
 .debug_aranges
                0x000000c0       0x20 c:/program files/dspace rcphil 2016-a/compiler/qnx650_463/host/win32/x86/usr/bin/../lib/gcc/powerpc-unknown-nto-qnx6.5.0/4.6.3\libgcc.a(_ucmpdi2.o)
 .debug_aranges
                0x000000e0       0x20 c:/program files/dspace rcphil 2016-a/compiler/qnx650_463/host/win32/x86/usr/bin/../lib/gcc/powerpc-unknown-nto-qnx6.5.0/4.6.3\libgcc.a(_clear_cache.o)
 .debug_aranges
                0x00000100       0x20 c:/program files/dspace rcphil 2016-a/compiler/qnx650_463/host/win32/x86/usr/bin/../lib/gcc/powerpc-unknown-nto-qnx6.5.0/4.6.3\libgcc.a(_enable_execute_stack.o)
 .debug_aranges
                0x00000120       0x20 c:/program files/dspace rcphil 2016-a/compiler/qnx650_463/host/win32/x86/usr/bin/../lib/gcc/powerpc-unknown-nto-qnx6.5.0/4.6.3\libgcc.a(_absvsi2.o)
 .debug_aranges
                0x00000140       0x20 c:/program files/dspace rcphil 2016-a/compiler/qnx650_463/host/win32/x86/usr/bin/../lib/gcc/powerpc-unknown-nto-qnx6.5.0/4.6.3\libgcc.a(_absvdi2.o)
 .debug_aranges
                0x00000160       0x20 c:/program files/dspace rcphil 2016-a/compiler/qnx650_463/host/win32/x86/usr/bin/../lib/gcc/powerpc-unknown-nto-qnx6.5.0/4.6.3\libgcc.a(_addvsi3.o)
 .debug_aranges
                0x00000180       0x20 c:/program files/dspace rcphil 2016-a/compiler/qnx650_463/host/win32/x86/usr/bin/../lib/gcc/powerpc-unknown-nto-qnx6.5.0/4.6.3\libgcc.a(_addvdi3.o)
 .debug_aranges
                0x000001a0       0x20 c:/program files/dspace rcphil 2016-a/compiler/qnx650_463/host/win32/x86/usr/bin/../lib/gcc/powerpc-unknown-nto-qnx6.5.0/4.6.3\libgcc.a(_subvsi3.o)
 .debug_aranges
                0x000001c0       0x20 c:/program files/dspace rcphil 2016-a/compiler/qnx650_463/host/win32/x86/usr/bin/../lib/gcc/powerpc-unknown-nto-qnx6.5.0/4.6.3\libgcc.a(_subvdi3.o)
 .debug_aranges
                0x000001e0       0x20 c:/program files/dspace rcphil 2016-a/compiler/qnx650_463/host/win32/x86/usr/bin/../lib/gcc/powerpc-unknown-nto-qnx6.5.0/4.6.3\libgcc.a(_mulvsi3.o)
 .debug_aranges
                0x00000200       0x20 c:/program files/dspace rcphil 2016-a/compiler/qnx650_463/host/win32/x86/usr/bin/../lib/gcc/powerpc-unknown-nto-qnx6.5.0/4.6.3\libgcc.a(_mulvdi3.o)
 .debug_aranges
                0x00000220       0x20 c:/program files/dspace rcphil 2016-a/compiler/qnx650_463/host/win32/x86/usr/bin/../lib/gcc/powerpc-unknown-nto-qnx6.5.0/4.6.3\libgcc.a(_negvsi2.o)
 .debug_aranges
                0x00000240       0x20 c:/program files/dspace rcphil 2016-a/compiler/qnx650_463/host/win32/x86/usr/bin/../lib/gcc/powerpc-unknown-nto-qnx6.5.0/4.6.3\libgcc.a(_negvdi2.o)
 .debug_aranges
                0x00000260       0x20 c:/program files/dspace rcphil 2016-a/compiler/qnx650_463/host/win32/x86/usr/bin/../lib/gcc/powerpc-unknown-nto-qnx6.5.0/4.6.3\libgcc.a(_ffssi2.o)
 .debug_aranges
                0x00000280       0x20 c:/program files/dspace rcphil 2016-a/compiler/qnx650_463/host/win32/x86/usr/bin/../lib/gcc/powerpc-unknown-nto-qnx6.5.0/4.6.3\libgcc.a(_ffsdi2.o)
 .debug_aranges
                0x000002a0       0x20 c:/program files/dspace rcphil 2016-a/compiler/qnx650_463/host/win32/x86/usr/bin/../lib/gcc/powerpc-unknown-nto-qnx6.5.0/4.6.3\libgcc.a(_clzsi2.o)
 .debug_aranges
                0x000002c0       0x20 c:/program files/dspace rcphil 2016-a/compiler/qnx650_463/host/win32/x86/usr/bin/../lib/gcc/powerpc-unknown-nto-qnx6.5.0/4.6.3\libgcc.a(_clzdi2.o)
 .debug_aranges
                0x000002e0       0x20 c:/program files/dspace rcphil 2016-a/compiler/qnx650_463/host/win32/x86/usr/bin/../lib/gcc/powerpc-unknown-nto-qnx6.5.0/4.6.3\libgcc.a(_ctzsi2.o)
 .debug_aranges
                0x00000300       0x20 c:/program files/dspace rcphil 2016-a/compiler/qnx650_463/host/win32/x86/usr/bin/../lib/gcc/powerpc-unknown-nto-qnx6.5.0/4.6.3\libgcc.a(_ctzdi2.o)
 .debug_aranges
                0x00000320       0x20 c:/program files/dspace rcphil 2016-a/compiler/qnx650_463/host/win32/x86/usr/bin/../lib/gcc/powerpc-unknown-nto-qnx6.5.0/4.6.3\libgcc.a(_popcountsi2.o)
 .debug_aranges
                0x00000340       0x20 c:/program files/dspace rcphil 2016-a/compiler/qnx650_463/host/win32/x86/usr/bin/../lib/gcc/powerpc-unknown-nto-qnx6.5.0/4.6.3\libgcc.a(_popcountdi2.o)
 .debug_aranges
                0x00000360       0x20 c:/program files/dspace rcphil 2016-a/compiler/qnx650_463/host/win32/x86/usr/bin/../lib/gcc/powerpc-unknown-nto-qnx6.5.0/4.6.3\libgcc.a(_paritysi2.o)
 .debug_aranges
                0x00000380       0x20 c:/program files/dspace rcphil 2016-a/compiler/qnx650_463/host/win32/x86/usr/bin/../lib/gcc/powerpc-unknown-nto-qnx6.5.0/4.6.3\libgcc.a(_paritydi2.o)
 .debug_aranges
                0x000003a0       0x20 c:/program files/dspace rcphil 2016-a/compiler/qnx650_463/host/win32/x86/usr/bin/../lib/gcc/powerpc-unknown-nto-qnx6.5.0/4.6.3\libgcc.a(_powisf2.o)
 .debug_aranges
                0x000003c0       0x20 c:/program files/dspace rcphil 2016-a/compiler/qnx650_463/host/win32/x86/usr/bin/../lib/gcc/powerpc-unknown-nto-qnx6.5.0/4.6.3\libgcc.a(_powidf2.o)
 .debug_aranges
                0x000003e0       0x20 c:/program files/dspace rcphil 2016-a/compiler/qnx650_463/host/win32/x86/usr/bin/../lib/gcc/powerpc-unknown-nto-qnx6.5.0/4.6.3\libgcc.a(_mulsc3.o)
 .debug_aranges
                0x00000400       0x20 c:/program files/dspace rcphil 2016-a/compiler/qnx650_463/host/win32/x86/usr/bin/../lib/gcc/powerpc-unknown-nto-qnx6.5.0/4.6.3\libgcc.a(_muldc3.o)
 .debug_aranges
                0x00000420       0x20 c:/program files/dspace rcphil 2016-a/compiler/qnx650_463/host/win32/x86/usr/bin/../lib/gcc/powerpc-unknown-nto-qnx6.5.0/4.6.3\libgcc.a(_divsc3.o)
 .debug_aranges
                0x00000440       0x20 c:/program files/dspace rcphil 2016-a/compiler/qnx650_463/host/win32/x86/usr/bin/../lib/gcc/powerpc-unknown-nto-qnx6.5.0/4.6.3\libgcc.a(_divdc3.o)
 .debug_aranges
                0x00000460       0x20 c:/program files/dspace rcphil 2016-a/compiler/qnx650_463/host/win32/x86/usr/bin/../lib/gcc/powerpc-unknown-nto-qnx6.5.0/4.6.3\libgcc.a(_bswapsi2.o)
 .debug_aranges
                0x00000480       0x20 c:/program files/dspace rcphil 2016-a/compiler/qnx650_463/host/win32/x86/usr/bin/../lib/gcc/powerpc-unknown-nto-qnx6.5.0/4.6.3\libgcc.a(_bswapdi2.o)
 .debug_aranges
                0x000004a0       0x20 c:/program files/dspace rcphil 2016-a/compiler/qnx650_463/host/win32/x86/usr/bin/../lib/gcc/powerpc-unknown-nto-qnx6.5.0/4.6.3\libgcc.a(_fixunssfsi.o)
 .debug_aranges
                0x000004c0       0x20 c:/program files/dspace rcphil 2016-a/compiler/qnx650_463/host/win32/x86/usr/bin/../lib/gcc/powerpc-unknown-nto-qnx6.5.0/4.6.3\libgcc.a(_fixunsdfsi.o)
 .debug_aranges
                0x000004e0       0x20 c:/program files/dspace rcphil 2016-a/compiler/qnx650_463/host/win32/x86/usr/bin/../lib/gcc/powerpc-unknown-nto-qnx6.5.0/4.6.3\libgcc.a(_fixsfdi.o)
 .debug_aranges
                0x00000500       0x20 c:/program files/dspace rcphil 2016-a/compiler/qnx650_463/host/win32/x86/usr/bin/../lib/gcc/powerpc-unknown-nto-qnx6.5.0/4.6.3\libgcc.a(_fixdfdi.o)
 .debug_aranges
                0x00000520       0x20 c:/program files/dspace rcphil 2016-a/compiler/qnx650_463/host/win32/x86/usr/bin/../lib/gcc/powerpc-unknown-nto-qnx6.5.0/4.6.3\libgcc.a(_fixunssfdi.o)
 .debug_aranges
                0x00000540       0x20 c:/program files/dspace rcphil 2016-a/compiler/qnx650_463/host/win32/x86/usr/bin/../lib/gcc/powerpc-unknown-nto-qnx6.5.0/4.6.3\libgcc.a(_fixunsdfdi.o)
 .debug_aranges
                0x00000560       0x20 c:/program files/dspace rcphil 2016-a/compiler/qnx650_463/host/win32/x86/usr/bin/../lib/gcc/powerpc-unknown-nto-qnx6.5.0/4.6.3\libgcc.a(_floatdisf.o)
 .debug_aranges
                0x00000580       0x20 c:/program files/dspace rcphil 2016-a/compiler/qnx650_463/host/win32/x86/usr/bin/../lib/gcc/powerpc-unknown-nto-qnx6.5.0/4.6.3\libgcc.a(_floatdidf.o)
 .debug_aranges
                0x000005a0       0x20 c:/program files/dspace rcphil 2016-a/compiler/qnx650_463/host/win32/x86/usr/bin/../lib/gcc/powerpc-unknown-nto-qnx6.5.0/4.6.3\libgcc.a(_floatundisf.o)
 .debug_aranges
                0x000005c0       0x20 c:/program files/dspace rcphil 2016-a/compiler/qnx650_463/host/win32/x86/usr/bin/../lib/gcc/powerpc-unknown-nto-qnx6.5.0/4.6.3\libgcc.a(_floatundidf.o)
 .debug_aranges
                0x000005e0       0x20 c:/program files/dspace rcphil 2016-a/compiler/qnx650_463/host/win32/x86/usr/bin/../lib/gcc/powerpc-unknown-nto-qnx6.5.0/4.6.3\libgcc.a(_eprintf.o)
 .debug_aranges
                0x00000600       0x20 c:/program files/dspace rcphil 2016-a/compiler/qnx650_463/host/win32/x86/usr/bin/../lib/gcc/powerpc-unknown-nto-qnx6.5.0/4.6.3\libgcc.a(__gcc_bcmp.o)
 .debug_aranges
                0x00000620       0x20 c:/program files/dspace rcphil 2016-a/compiler/qnx650_463/host/win32/x86/usr/bin/../lib/gcc/powerpc-unknown-nto-qnx6.5.0/4.6.3\libgcc.a(_divdi3.o)
 .debug_aranges
                0x00000640       0x20 c:/program files/dspace rcphil 2016-a/compiler/qnx650_463/host/win32/x86/usr/bin/../lib/gcc/powerpc-unknown-nto-qnx6.5.0/4.6.3\libgcc.a(_moddi3.o)
 .debug_aranges
                0x00000660       0x20 c:/program files/dspace rcphil 2016-a/compiler/qnx650_463/host/win32/x86/usr/bin/../lib/gcc/powerpc-unknown-nto-qnx6.5.0/4.6.3\libgcc.a(_udivdi3.o)
 .debug_aranges
                0x00000680       0x20 c:/program files/dspace rcphil 2016-a/compiler/qnx650_463/host/win32/x86/usr/bin/../lib/gcc/powerpc-unknown-nto-qnx6.5.0/4.6.3\libgcc.a(_umoddi3.o)
 .debug_aranges
                0x000006a0       0x20 c:/program files/dspace rcphil 2016-a/compiler/qnx650_463/host/win32/x86/usr/bin/../lib/gcc/powerpc-unknown-nto-qnx6.5.0/4.6.3\libgcc.a(_udiv_w_sdiv.o)
 .debug_aranges
                0x000006c0       0x20 c:/program files/dspace rcphil 2016-a/compiler/qnx650_463/host/win32/x86/usr/bin/../lib/gcc/powerpc-unknown-nto-qnx6.5.0/4.6.3\libgcc.a(_udivmoddi4.o)
 .debug_aranges
                0x000006e0       0x20 c:/program files/dspace rcphil 2016-a/compiler/qnx650_463/host/win32/x86/usr/bin/../lib/gcc/powerpc-unknown-nto-qnx6.5.0/4.6.3\libgcc.a(_pack_sf.o)
 .debug_aranges
                0x00000700       0x20 c:/program files/dspace rcphil 2016-a/compiler/qnx650_463/host/win32/x86/usr/bin/../lib/gcc/powerpc-unknown-nto-qnx6.5.0/4.6.3\libgcc.a(_unpack_sf.o)
 .debug_aranges
                0x00000720       0x20 c:/program files/dspace rcphil 2016-a/compiler/qnx650_463/host/win32/x86/usr/bin/../lib/gcc/powerpc-unknown-nto-qnx6.5.0/4.6.3\libgcc.a(_addsub_sf.o)
 .debug_aranges
                0x00000740       0x20 c:/program files/dspace rcphil 2016-a/compiler/qnx650_463/host/win32/x86/usr/bin/../lib/gcc/powerpc-unknown-nto-qnx6.5.0/4.6.3\libgcc.a(_mul_sf.o)
 .debug_aranges
                0x00000760       0x20 c:/program files/dspace rcphil 2016-a/compiler/qnx650_463/host/win32/x86/usr/bin/../lib/gcc/powerpc-unknown-nto-qnx6.5.0/4.6.3\libgcc.a(_div_sf.o)
 .debug_aranges
                0x00000780       0x20 c:/program files/dspace rcphil 2016-a/compiler/qnx650_463/host/win32/x86/usr/bin/../lib/gcc/powerpc-unknown-nto-qnx6.5.0/4.6.3\libgcc.a(_fpcmp_parts_sf.o)
 .debug_aranges
                0x000007a0       0x20 c:/program files/dspace rcphil 2016-a/compiler/qnx650_463/host/win32/x86/usr/bin/../lib/gcc/powerpc-unknown-nto-qnx6.5.0/4.6.3\libgcc.a(_compare_sf.o)
 .debug_aranges
                0x000007c0       0x20 c:/program files/dspace rcphil 2016-a/compiler/qnx650_463/host/win32/x86/usr/bin/../lib/gcc/powerpc-unknown-nto-qnx6.5.0/4.6.3\libgcc.a(_eq_sf.o)
 .debug_aranges
                0x000007e0       0x20 c:/program files/dspace rcphil 2016-a/compiler/qnx650_463/host/win32/x86/usr/bin/../lib/gcc/powerpc-unknown-nto-qnx6.5.0/4.6.3\libgcc.a(_ne_sf.o)
 .debug_aranges
                0x00000800       0x20 c:/program files/dspace rcphil 2016-a/compiler/qnx650_463/host/win32/x86/usr/bin/../lib/gcc/powerpc-unknown-nto-qnx6.5.0/4.6.3\libgcc.a(_gt_sf.o)
 .debug_aranges
                0x00000820       0x20 c:/program files/dspace rcphil 2016-a/compiler/qnx650_463/host/win32/x86/usr/bin/../lib/gcc/powerpc-unknown-nto-qnx6.5.0/4.6.3\libgcc.a(_ge_sf.o)
 .debug_aranges
                0x00000840       0x20 c:/program files/dspace rcphil 2016-a/compiler/qnx650_463/host/win32/x86/usr/bin/../lib/gcc/powerpc-unknown-nto-qnx6.5.0/4.6.3\libgcc.a(_lt_sf.o)
 .debug_aranges
                0x00000860       0x20 c:/program files/dspace rcphil 2016-a/compiler/qnx650_463/host/win32/x86/usr/bin/../lib/gcc/powerpc-unknown-nto-qnx6.5.0/4.6.3\libgcc.a(_le_sf.o)
 .debug_aranges
                0x00000880       0x20 c:/program files/dspace rcphil 2016-a/compiler/qnx650_463/host/win32/x86/usr/bin/../lib/gcc/powerpc-unknown-nto-qnx6.5.0/4.6.3\libgcc.a(_unord_sf.o)
 .debug_aranges
                0x000008a0       0x20 c:/program files/dspace rcphil 2016-a/compiler/qnx650_463/host/win32/x86/usr/bin/../lib/gcc/powerpc-unknown-nto-qnx6.5.0/4.6.3\libgcc.a(_si_to_sf.o)
 .debug_aranges
                0x000008c0       0x20 c:/program files/dspace rcphil 2016-a/compiler/qnx650_463/host/win32/x86/usr/bin/../lib/gcc/powerpc-unknown-nto-qnx6.5.0/4.6.3\libgcc.a(_sf_to_si.o)
 .debug_aranges
                0x000008e0       0x20 c:/program files/dspace rcphil 2016-a/compiler/qnx650_463/host/win32/x86/usr/bin/../lib/gcc/powerpc-unknown-nto-qnx6.5.0/4.6.3\libgcc.a(_negate_sf.o)
 .debug_aranges
                0x00000900       0x20 c:/program files/dspace rcphil 2016-a/compiler/qnx650_463/host/win32/x86/usr/bin/../lib/gcc/powerpc-unknown-nto-qnx6.5.0/4.6.3\libgcc.a(_make_sf.o)
 .debug_aranges
                0x00000920       0x20 c:/program files/dspace rcphil 2016-a/compiler/qnx650_463/host/win32/x86/usr/bin/../lib/gcc/powerpc-unknown-nto-qnx6.5.0/4.6.3\libgcc.a(_sf_to_df.o)
 .debug_aranges
                0x00000940       0x20 c:/program files/dspace rcphil 2016-a/compiler/qnx650_463/host/win32/x86/usr/bin/../lib/gcc/powerpc-unknown-nto-qnx6.5.0/4.6.3\libgcc.a(_usi_to_sf.o)
 .debug_aranges
                0x00000960       0x20 c:/program files/dspace rcphil 2016-a/compiler/qnx650_463/host/win32/x86/usr/bin/../lib/gcc/powerpc-unknown-nto-qnx6.5.0/4.6.3\libgcc.a(_pack_df.o)
 .debug_aranges
                0x00000980       0x20 c:/program files/dspace rcphil 2016-a/compiler/qnx650_463/host/win32/x86/usr/bin/../lib/gcc/powerpc-unknown-nto-qnx6.5.0/4.6.3\libgcc.a(_unpack_df.o)
 .debug_aranges
                0x000009a0       0x20 c:/program files/dspace rcphil 2016-a/compiler/qnx650_463/host/win32/x86/usr/bin/../lib/gcc/powerpc-unknown-nto-qnx6.5.0/4.6.3\libgcc.a(_addsub_df.o)
 .debug_aranges
                0x000009c0       0x20 c:/program files/dspace rcphil 2016-a/compiler/qnx650_463/host/win32/x86/usr/bin/../lib/gcc/powerpc-unknown-nto-qnx6.5.0/4.6.3\libgcc.a(_mul_df.o)
 .debug_aranges
                0x000009e0       0x20 c:/program files/dspace rcphil 2016-a/compiler/qnx650_463/host/win32/x86/usr/bin/../lib/gcc/powerpc-unknown-nto-qnx6.5.0/4.6.3\libgcc.a(_div_df.o)
 .debug_aranges
                0x00000a00       0x20 c:/program files/dspace rcphil 2016-a/compiler/qnx650_463/host/win32/x86/usr/bin/../lib/gcc/powerpc-unknown-nto-qnx6.5.0/4.6.3\libgcc.a(_fpcmp_parts_df.o)
 .debug_aranges
                0x00000a20       0x20 c:/program files/dspace rcphil 2016-a/compiler/qnx650_463/host/win32/x86/usr/bin/../lib/gcc/powerpc-unknown-nto-qnx6.5.0/4.6.3\libgcc.a(_compare_df.o)
 .debug_aranges
                0x00000a40       0x20 c:/program files/dspace rcphil 2016-a/compiler/qnx650_463/host/win32/x86/usr/bin/../lib/gcc/powerpc-unknown-nto-qnx6.5.0/4.6.3\libgcc.a(_eq_df.o)
 .debug_aranges
                0x00000a60       0x20 c:/program files/dspace rcphil 2016-a/compiler/qnx650_463/host/win32/x86/usr/bin/../lib/gcc/powerpc-unknown-nto-qnx6.5.0/4.6.3\libgcc.a(_ne_df.o)
 .debug_aranges
                0x00000a80       0x20 c:/program files/dspace rcphil 2016-a/compiler/qnx650_463/host/win32/x86/usr/bin/../lib/gcc/powerpc-unknown-nto-qnx6.5.0/4.6.3\libgcc.a(_gt_df.o)
 .debug_aranges
                0x00000aa0       0x20 c:/program files/dspace rcphil 2016-a/compiler/qnx650_463/host/win32/x86/usr/bin/../lib/gcc/powerpc-unknown-nto-qnx6.5.0/4.6.3\libgcc.a(_ge_df.o)
 .debug_aranges
                0x00000ac0       0x20 c:/program files/dspace rcphil 2016-a/compiler/qnx650_463/host/win32/x86/usr/bin/../lib/gcc/powerpc-unknown-nto-qnx6.5.0/4.6.3\libgcc.a(_lt_df.o)
 .debug_aranges
                0x00000ae0       0x20 c:/program files/dspace rcphil 2016-a/compiler/qnx650_463/host/win32/x86/usr/bin/../lib/gcc/powerpc-unknown-nto-qnx6.5.0/4.6.3\libgcc.a(_le_df.o)
 .debug_aranges
                0x00000b00       0x20 c:/program files/dspace rcphil 2016-a/compiler/qnx650_463/host/win32/x86/usr/bin/../lib/gcc/powerpc-unknown-nto-qnx6.5.0/4.6.3\libgcc.a(_unord_df.o)
 .debug_aranges
                0x00000b20       0x20 c:/program files/dspace rcphil 2016-a/compiler/qnx650_463/host/win32/x86/usr/bin/../lib/gcc/powerpc-unknown-nto-qnx6.5.0/4.6.3\libgcc.a(_si_to_df.o)
 .debug_aranges
                0x00000b40       0x20 c:/program files/dspace rcphil 2016-a/compiler/qnx650_463/host/win32/x86/usr/bin/../lib/gcc/powerpc-unknown-nto-qnx6.5.0/4.6.3\libgcc.a(_df_to_si.o)
 .debug_aranges
                0x00000b60       0x20 c:/program files/dspace rcphil 2016-a/compiler/qnx650_463/host/win32/x86/usr/bin/../lib/gcc/powerpc-unknown-nto-qnx6.5.0/4.6.3\libgcc.a(_negate_df.o)
 .debug_aranges
                0x00000b80       0x20 c:/program files/dspace rcphil 2016-a/compiler/qnx650_463/host/win32/x86/usr/bin/../lib/gcc/powerpc-unknown-nto-qnx6.5.0/4.6.3\libgcc.a(_make_df.o)
 .debug_aranges
                0x00000ba0       0x20 c:/program files/dspace rcphil 2016-a/compiler/qnx650_463/host/win32/x86/usr/bin/../lib/gcc/powerpc-unknown-nto-qnx6.5.0/4.6.3\libgcc.a(_df_to_sf.o)
 .debug_aranges
                0x00000bc0       0x20 c:/program files/dspace rcphil 2016-a/compiler/qnx650_463/host/win32/x86/usr/bin/../lib/gcc/powerpc-unknown-nto-qnx6.5.0/4.6.3\libgcc.a(_usi_to_df.o)
 .debug_aranges
                0x00000be0       0x20 c:/program files/dspace rcphil 2016-a/compiler/qnx650_463/host/win32/x86/usr/bin/../lib/gcc/powerpc-unknown-nto-qnx6.5.0/4.6.3\libgcc.a(tramp.o)
 .debug_aranges
                0x00000c00       0x20 c:/program files/dspace rcphil 2016-a/compiler/qnx650_463/host/win32/x86/usr/bin/../lib/gcc/powerpc-unknown-nto-qnx6.5.0/4.6.3\libgcc.a(crtsavfpr.o)
 .debug_aranges
                0x00000c20       0x20 c:/program files/dspace rcphil 2016-a/compiler/qnx650_463/host/win32/x86/usr/bin/../lib/gcc/powerpc-unknown-nto-qnx6.5.0/4.6.3\libgcc.a(crtresfpr.o)
 .debug_aranges
                0x00000c40       0x20 c:/program files/dspace rcphil 2016-a/compiler/qnx650_463/host/win32/x86/usr/bin/../lib/gcc/powerpc-unknown-nto-qnx6.5.0/4.6.3\libgcc.a(crtsavgpr.o)
 .debug_aranges
                0x00000c60       0x20 c:/program files/dspace rcphil 2016-a/compiler/qnx650_463/host/win32/x86/usr/bin/../lib/gcc/powerpc-unknown-nto-qnx6.5.0/4.6.3\libgcc.a(crtresgpr.o)
 .debug_aranges
                0x00000c80       0x20 c:/program files/dspace rcphil 2016-a/compiler/qnx650_463/host/win32/x86/usr/bin/../lib/gcc/powerpc-unknown-nto-qnx6.5.0/4.6.3\libgcc.a(crtresxfpr.o)
 .debug_aranges
                0x00000ca0       0x20 c:/program files/dspace rcphil 2016-a/compiler/qnx650_463/host/win32/x86/usr/bin/../lib/gcc/powerpc-unknown-nto-qnx6.5.0/4.6.3\libgcc.a(crtresxgpr.o)
 .debug_aranges
                0x00000cc0       0x20 c:/program files/dspace rcphil 2016-a/compiler/qnx650_463/host/win32/x86/usr/bin/../lib/gcc/powerpc-unknown-nto-qnx6.5.0/4.6.3\libgcc.a(unwind-dw2.o)
 .debug_aranges
                0x00000ce0       0x20 c:/program files/dspace rcphil 2016-a/compiler/qnx650_463/host/win32/x86/usr/bin/../lib/gcc/powerpc-unknown-nto-qnx6.5.0/4.6.3\libgcc.a(unwind-dw2-fde.o)
 .debug_aranges
                0x00000d00       0x20 c:/program files/dspace rcphil 2016-a/compiler/qnx650_463/host/win32/x86/usr/bin/../lib/gcc/powerpc-unknown-nto-qnx6.5.0/4.6.3\libgcc.a(unwind-c.o)
 .debug_aranges
                0x00000d20       0x20 c:/program files/dspace rcphil 2016-a/compiler/qnx650_463/host/win32/x86/usr/bin/../lib/gcc/powerpc-unknown-nto-qnx6.5.0/4.6.3\libgcc.a(emutls.o)

.debug_pubnames
 *(.debug_pubnames)

.debug_info     0x00000000    0x1ec7a
 *(.debug_info .gnu.linkonce.wi.*)
 .debug_info    0x00000000      0x1a4 c:/program files/dspace rcphil 2016-a/compiler/qnx650_463/host/win32/x86/usr/bin/../lib/gcc/powerpc-unknown-nto-qnx6.5.0/4.6.3\libgcc.a(_muldi3.o)
 .debug_info    0x000001a4      0x149 c:/program files/dspace rcphil 2016-a/compiler/qnx650_463/host/win32/x86/usr/bin/../lib/gcc/powerpc-unknown-nto-qnx6.5.0/4.6.3\libgcc.a(_negdi2.o)
 .debug_info    0x000002ed      0x199 c:/program files/dspace rcphil 2016-a/compiler/qnx650_463/host/win32/x86/usr/bin/../lib/gcc/powerpc-unknown-nto-qnx6.5.0/4.6.3\libgcc.a(_lshrdi3.o)
 .debug_info    0x00000486      0x199 c:/program files/dspace rcphil 2016-a/compiler/qnx650_463/host/win32/x86/usr/bin/../lib/gcc/powerpc-unknown-nto-qnx6.5.0/4.6.3\libgcc.a(_ashldi3.o)
 .debug_info    0x0000061f      0x199 c:/program files/dspace rcphil 2016-a/compiler/qnx650_463/host/win32/x86/usr/bin/../lib/gcc/powerpc-unknown-nto-qnx6.5.0/4.6.3\libgcc.a(_ashrdi3.o)
 .debug_info    0x000007b8      0x16a c:/program files/dspace rcphil 2016-a/compiler/qnx650_463/host/win32/x86/usr/bin/../lib/gcc/powerpc-unknown-nto-qnx6.5.0/4.6.3\libgcc.a(_cmpdi2.o)
 .debug_info    0x00000922      0x16a c:/program files/dspace rcphil 2016-a/compiler/qnx650_463/host/win32/x86/usr/bin/../lib/gcc/powerpc-unknown-nto-qnx6.5.0/4.6.3\libgcc.a(_ucmpdi2.o)
 .debug_info    0x00000a8c       0xcb c:/program files/dspace rcphil 2016-a/compiler/qnx650_463/host/win32/x86/usr/bin/../lib/gcc/powerpc-unknown-nto-qnx6.5.0/4.6.3\libgcc.a(_clear_cache.o)
 .debug_info    0x00000b57       0xb5 c:/program files/dspace rcphil 2016-a/compiler/qnx650_463/host/win32/x86/usr/bin/../lib/gcc/powerpc-unknown-nto-qnx6.5.0/4.6.3\libgcc.a(_enable_execute_stack.o)
 .debug_info    0x00000c0c       0x8f c:/program files/dspace rcphil 2016-a/compiler/qnx650_463/host/win32/x86/usr/bin/../lib/gcc/powerpc-unknown-nto-qnx6.5.0/4.6.3\libgcc.a(_trampoline.o)
 .debug_info    0x00000c9b       0x8f c:/program files/dspace rcphil 2016-a/compiler/qnx650_463/host/win32/x86/usr/bin/../lib/gcc/powerpc-unknown-nto-qnx6.5.0/4.6.3\libgcc.a(__main.o)
 .debug_info    0x00000d2a       0xd9 c:/program files/dspace rcphil 2016-a/compiler/qnx650_463/host/win32/x86/usr/bin/../lib/gcc/powerpc-unknown-nto-qnx6.5.0/4.6.3\libgcc.a(_absvsi2.o)
 .debug_info    0x00000e03       0xdc c:/program files/dspace rcphil 2016-a/compiler/qnx650_463/host/win32/x86/usr/bin/../lib/gcc/powerpc-unknown-nto-qnx6.5.0/4.6.3\libgcc.a(_absvdi2.o)
 .debug_info    0x00000edf       0xef c:/program files/dspace rcphil 2016-a/compiler/qnx650_463/host/win32/x86/usr/bin/../lib/gcc/powerpc-unknown-nto-qnx6.5.0/4.6.3\libgcc.a(_addvsi3.o)
 .debug_info    0x00000fce       0xef c:/program files/dspace rcphil 2016-a/compiler/qnx650_463/host/win32/x86/usr/bin/../lib/gcc/powerpc-unknown-nto-qnx6.5.0/4.6.3\libgcc.a(_addvdi3.o)
 .debug_info    0x000010bd       0xef c:/program files/dspace rcphil 2016-a/compiler/qnx650_463/host/win32/x86/usr/bin/../lib/gcc/powerpc-unknown-nto-qnx6.5.0/4.6.3\libgcc.a(_subvsi3.o)
 .debug_info    0x000011ac       0xef c:/program files/dspace rcphil 2016-a/compiler/qnx650_463/host/win32/x86/usr/bin/../lib/gcc/powerpc-unknown-nto-qnx6.5.0/4.6.3\libgcc.a(_subvdi3.o)
 .debug_info    0x0000129b       0xf2 c:/program files/dspace rcphil 2016-a/compiler/qnx650_463/host/win32/x86/usr/bin/../lib/gcc/powerpc-unknown-nto-qnx6.5.0/4.6.3\libgcc.a(_mulvsi3.o)
 .debug_info    0x0000138d      0x224 c:/program files/dspace rcphil 2016-a/compiler/qnx650_463/host/win32/x86/usr/bin/../lib/gcc/powerpc-unknown-nto-qnx6.5.0/4.6.3\libgcc.a(_mulvdi3.o)
 .debug_info    0x000015b1       0xe2 c:/program files/dspace rcphil 2016-a/compiler/qnx650_463/host/win32/x86/usr/bin/../lib/gcc/powerpc-unknown-nto-qnx6.5.0/4.6.3\libgcc.a(_negvsi2.o)
 .debug_info    0x00001693       0xe2 c:/program files/dspace rcphil 2016-a/compiler/qnx650_463/host/win32/x86/usr/bin/../lib/gcc/powerpc-unknown-nto-qnx6.5.0/4.6.3\libgcc.a(_negvdi2.o)
 .debug_info    0x00001775       0x8f c:/program files/dspace rcphil 2016-a/compiler/qnx650_463/host/win32/x86/usr/bin/../lib/gcc/powerpc-unknown-nto-qnx6.5.0/4.6.3\libgcc.a(_ctors.o)
 .debug_info    0x00001804       0xfa c:/program files/dspace rcphil 2016-a/compiler/qnx650_463/host/win32/x86/usr/bin/../lib/gcc/powerpc-unknown-nto-qnx6.5.0/4.6.3\libgcc.a(_ffssi2.o)
 .debug_info    0x000018fe      0x199 c:/program files/dspace rcphil 2016-a/compiler/qnx650_463/host/win32/x86/usr/bin/../lib/gcc/powerpc-unknown-nto-qnx6.5.0/4.6.3\libgcc.a(_ffsdi2.o)
 .debug_info    0x00001a97     0x1c1d c:/program files/dspace rcphil 2016-a/compiler/qnx650_463/host/win32/x86/usr/bin/../lib/gcc/powerpc-unknown-nto-qnx6.5.0/4.6.3\libgcc.a(_clz.o)
 .debug_info    0x000036b4       0xdb c:/program files/dspace rcphil 2016-a/compiler/qnx650_463/host/win32/x86/usr/bin/../lib/gcc/powerpc-unknown-nto-qnx6.5.0/4.6.3\libgcc.a(_clzsi2.o)
 .debug_info    0x0000378f      0x17c c:/program files/dspace rcphil 2016-a/compiler/qnx650_463/host/win32/x86/usr/bin/../lib/gcc/powerpc-unknown-nto-qnx6.5.0/4.6.3\libgcc.a(_clzdi2.o)
 .debug_info    0x0000390b      0x103 c:/program files/dspace rcphil 2016-a/compiler/qnx650_463/host/win32/x86/usr/bin/../lib/gcc/powerpc-unknown-nto-qnx6.5.0/4.6.3\libgcc.a(_ctzsi2.o)
 .debug_info    0x00003a0e      0x1a4 c:/program files/dspace rcphil 2016-a/compiler/qnx650_463/host/win32/x86/usr/bin/../lib/gcc/powerpc-unknown-nto-qnx6.5.0/4.6.3\libgcc.a(_ctzdi2.o)
 .debug_info    0x00003bb2     0x1c1d c:/program files/dspace rcphil 2016-a/compiler/qnx650_463/host/win32/x86/usr/bin/../lib/gcc/powerpc-unknown-nto-qnx6.5.0/4.6.3\libgcc.a(_popcount_tab.o)
 .debug_info    0x000057cf      0x112 c:/program files/dspace rcphil 2016-a/compiler/qnx650_463/host/win32/x86/usr/bin/../lib/gcc/powerpc-unknown-nto-qnx6.5.0/4.6.3\libgcc.a(_popcountsi2.o)
 .debug_info    0x000058e1      0x112 c:/program files/dspace rcphil 2016-a/compiler/qnx650_463/host/win32/x86/usr/bin/../lib/gcc/powerpc-unknown-nto-qnx6.5.0/4.6.3\libgcc.a(_popcountdi2.o)
 .debug_info    0x000059f3       0xc2 c:/program files/dspace rcphil 2016-a/compiler/qnx650_463/host/win32/x86/usr/bin/../lib/gcc/powerpc-unknown-nto-qnx6.5.0/4.6.3\libgcc.a(_paritysi2.o)
 .debug_info    0x00005ab5      0x15d c:/program files/dspace rcphil 2016-a/compiler/qnx650_463/host/win32/x86/usr/bin/../lib/gcc/powerpc-unknown-nto-qnx6.5.0/4.6.3\libgcc.a(_paritydi2.o)
 .debug_info    0x00005c12       0xea c:/program files/dspace rcphil 2016-a/compiler/qnx650_463/host/win32/x86/usr/bin/../lib/gcc/powerpc-unknown-nto-qnx6.5.0/4.6.3\libgcc.a(_powisf2.o)
 .debug_info    0x00005cfc       0xea c:/program files/dspace rcphil 2016-a/compiler/qnx650_463/host/win32/x86/usr/bin/../lib/gcc/powerpc-unknown-nto-qnx6.5.0/4.6.3\libgcc.a(_powidf2.o)
 .debug_info    0x00005de6       0x8f c:/program files/dspace rcphil 2016-a/compiler/qnx650_463/host/win32/x86/usr/bin/../lib/gcc/powerpc-unknown-nto-qnx6.5.0/4.6.3\libgcc.a(_powixf2.o)
 .debug_info    0x00005e75       0x8f c:/program files/dspace rcphil 2016-a/compiler/qnx650_463/host/win32/x86/usr/bin/../lib/gcc/powerpc-unknown-nto-qnx6.5.0/4.6.3\libgcc.a(_powitf2.o)
 .debug_info    0x00005f04      0x183 c:/program files/dspace rcphil 2016-a/compiler/qnx650_463/host/win32/x86/usr/bin/../lib/gcc/powerpc-unknown-nto-qnx6.5.0/4.6.3\libgcc.a(_mulsc3.o)
 .debug_info    0x00006087      0x182 c:/program files/dspace rcphil 2016-a/compiler/qnx650_463/host/win32/x86/usr/bin/../lib/gcc/powerpc-unknown-nto-qnx6.5.0/4.6.3\libgcc.a(_muldc3.o)
 .debug_info    0x00006209       0x8f c:/program files/dspace rcphil 2016-a/compiler/qnx650_463/host/win32/x86/usr/bin/../lib/gcc/powerpc-unknown-nto-qnx6.5.0/4.6.3\libgcc.a(_mulxc3.o)
 .debug_info    0x00006298       0x8f c:/program files/dspace rcphil 2016-a/compiler/qnx650_463/host/win32/x86/usr/bin/../lib/gcc/powerpc-unknown-nto-qnx6.5.0/4.6.3\libgcc.a(_multc3.o)
 .debug_info    0x00006327      0x144 c:/program files/dspace rcphil 2016-a/compiler/qnx650_463/host/win32/x86/usr/bin/../lib/gcc/powerpc-unknown-nto-qnx6.5.0/4.6.3\libgcc.a(_divsc3.o)
 .debug_info    0x0000646b      0x144 c:/program files/dspace rcphil 2016-a/compiler/qnx650_463/host/win32/x86/usr/bin/../lib/gcc/powerpc-unknown-nto-qnx6.5.0/4.6.3\libgcc.a(_divdc3.o)
 .debug_info    0x000065af       0x8f c:/program files/dspace rcphil 2016-a/compiler/qnx650_463/host/win32/x86/usr/bin/../lib/gcc/powerpc-unknown-nto-qnx6.5.0/4.6.3\libgcc.a(_divxc3.o)
 .debug_info    0x0000663e       0x8f c:/program files/dspace rcphil 2016-a/compiler/qnx650_463/host/win32/x86/usr/bin/../lib/gcc/powerpc-unknown-nto-qnx6.5.0/4.6.3\libgcc.a(_divtc3.o)
 .debug_info    0x000066cd       0xc2 c:/program files/dspace rcphil 2016-a/compiler/qnx650_463/host/win32/x86/usr/bin/../lib/gcc/powerpc-unknown-nto-qnx6.5.0/4.6.3\libgcc.a(_bswapsi2.o)
 .debug_info    0x0000678f       0xc2 c:/program files/dspace rcphil 2016-a/compiler/qnx650_463/host/win32/x86/usr/bin/../lib/gcc/powerpc-unknown-nto-qnx6.5.0/4.6.3\libgcc.a(_bswapdi2.o)
 .debug_info    0x00006851       0xd9 c:/program files/dspace rcphil 2016-a/compiler/qnx650_463/host/win32/x86/usr/bin/../lib/gcc/powerpc-unknown-nto-qnx6.5.0/4.6.3\libgcc.a(_fixunssfsi.o)
 .debug_info    0x0000692a       0xd9 c:/program files/dspace rcphil 2016-a/compiler/qnx650_463/host/win32/x86/usr/bin/../lib/gcc/powerpc-unknown-nto-qnx6.5.0/4.6.3\libgcc.a(_fixunsdfsi.o)
 .debug_info    0x00006a03       0x8f c:/program files/dspace rcphil 2016-a/compiler/qnx650_463/host/win32/x86/usr/bin/../lib/gcc/powerpc-unknown-nto-qnx6.5.0/4.6.3\libgcc.a(_fixunsxfsi.o)
 .debug_info    0x00006a92       0xce c:/program files/dspace rcphil 2016-a/compiler/qnx650_463/host/win32/x86/usr/bin/../lib/gcc/powerpc-unknown-nto-qnx6.5.0/4.6.3\libgcc.a(_fixsfdi.o)
 .debug_info    0x00006b60       0xce c:/program files/dspace rcphil 2016-a/compiler/qnx650_463/host/win32/x86/usr/bin/../lib/gcc/powerpc-unknown-nto-qnx6.5.0/4.6.3\libgcc.a(_fixdfdi.o)
 .debug_info    0x00006c2e       0x8f c:/program files/dspace rcphil 2016-a/compiler/qnx650_463/host/win32/x86/usr/bin/../lib/gcc/powerpc-unknown-nto-qnx6.5.0/4.6.3\libgcc.a(_fixxfdi.o)
 .debug_info    0x00006cbd       0x8f c:/program files/dspace rcphil 2016-a/compiler/qnx650_463/host/win32/x86/usr/bin/../lib/gcc/powerpc-unknown-nto-qnx6.5.0/4.6.3\libgcc.a(_fixtfdi.o)
 .debug_info    0x00006d4c      0x11b c:/program files/dspace rcphil 2016-a/compiler/qnx650_463/host/win32/x86/usr/bin/../lib/gcc/powerpc-unknown-nto-qnx6.5.0/4.6.3\libgcc.a(_fixunssfdi.o)
 .debug_info    0x00006e67       0xfc c:/program files/dspace rcphil 2016-a/compiler/qnx650_463/host/win32/x86/usr/bin/../lib/gcc/powerpc-unknown-nto-qnx6.5.0/4.6.3\libgcc.a(_fixunsdfdi.o)
 .debug_info    0x00006f63       0x8f c:/program files/dspace rcphil 2016-a/compiler/qnx650_463/host/win32/x86/usr/bin/../lib/gcc/powerpc-unknown-nto-qnx6.5.0/4.6.3\libgcc.a(_fixunsxfdi.o)
 .debug_info    0x00006ff2       0x8f c:/program files/dspace rcphil 2016-a/compiler/qnx650_463/host/win32/x86/usr/bin/../lib/gcc/powerpc-unknown-nto-qnx6.5.0/4.6.3\libgcc.a(_fixunstfdi.o)
 .debug_info    0x00007081      0x104 c:/program files/dspace rcphil 2016-a/compiler/qnx650_463/host/win32/x86/usr/bin/../lib/gcc/powerpc-unknown-nto-qnx6.5.0/4.6.3\libgcc.a(_floatdisf.o)
 .debug_info    0x00007185       0xee c:/program files/dspace rcphil 2016-a/compiler/qnx650_463/host/win32/x86/usr/bin/../lib/gcc/powerpc-unknown-nto-qnx6.5.0/4.6.3\libgcc.a(_floatdidf.o)
 .debug_info    0x00007273       0x8f c:/program files/dspace rcphil 2016-a/compiler/qnx650_463/host/win32/x86/usr/bin/../lib/gcc/powerpc-unknown-nto-qnx6.5.0/4.6.3\libgcc.a(_floatdixf.o)
 .debug_info    0x00007302       0x8f c:/program files/dspace rcphil 2016-a/compiler/qnx650_463/host/win32/x86/usr/bin/../lib/gcc/powerpc-unknown-nto-qnx6.5.0/4.6.3\libgcc.a(_floatditf.o)
 .debug_info    0x00007391       0xee c:/program files/dspace rcphil 2016-a/compiler/qnx650_463/host/win32/x86/usr/bin/../lib/gcc/powerpc-unknown-nto-qnx6.5.0/4.6.3\libgcc.a(_floatundisf.o)
 .debug_info    0x0000747f       0xe6 c:/program files/dspace rcphil 2016-a/compiler/qnx650_463/host/win32/x86/usr/bin/../lib/gcc/powerpc-unknown-nto-qnx6.5.0/4.6.3\libgcc.a(_floatundidf.o)
 .debug_info    0x00007565       0x8f c:/program files/dspace rcphil 2016-a/compiler/qnx650_463/host/win32/x86/usr/bin/../lib/gcc/powerpc-unknown-nto-qnx6.5.0/4.6.3\libgcc.a(_floatundixf.o)
 .debug_info    0x000075f4       0x8f c:/program files/dspace rcphil 2016-a/compiler/qnx650_463/host/win32/x86/usr/bin/../lib/gcc/powerpc-unknown-nto-qnx6.5.0/4.6.3\libgcc.a(_floatunditf.o)
 .debug_info    0x00007683      0x2d6 c:/program files/dspace rcphil 2016-a/compiler/qnx650_463/host/win32/x86/usr/bin/../lib/gcc/powerpc-unknown-nto-qnx6.5.0/4.6.3\libgcc.a(_eprintf.o)
 .debug_info    0x00007959      0x120 c:/program files/dspace rcphil 2016-a/compiler/qnx650_463/host/win32/x86/usr/bin/../lib/gcc/powerpc-unknown-nto-qnx6.5.0/4.6.3\libgcc.a(__gcc_bcmp.o)
 .debug_info    0x00007a79      0x5d7 c:/program files/dspace rcphil 2016-a/compiler/qnx650_463/host/win32/x86/usr/bin/../lib/gcc/powerpc-unknown-nto-qnx6.5.0/4.6.3\libgcc.a(_divdi3.o)
 .debug_info    0x00008050      0x5bf c:/program files/dspace rcphil 2016-a/compiler/qnx650_463/host/win32/x86/usr/bin/../lib/gcc/powerpc-unknown-nto-qnx6.5.0/4.6.3\libgcc.a(_moddi3.o)
 .debug_info    0x0000860f      0x596 c:/program files/dspace rcphil 2016-a/compiler/qnx650_463/host/win32/x86/usr/bin/../lib/gcc/powerpc-unknown-nto-qnx6.5.0/4.6.3\libgcc.a(_udivdi3.o)
 .debug_info    0x00008ba5      0x592 c:/program files/dspace rcphil 2016-a/compiler/qnx650_463/host/win32/x86/usr/bin/../lib/gcc/powerpc-unknown-nto-qnx6.5.0/4.6.3\libgcc.a(_umoddi3.o)
 .debug_info    0x00009137       0xf3 c:/program files/dspace rcphil 2016-a/compiler/qnx650_463/host/win32/x86/usr/bin/../lib/gcc/powerpc-unknown-nto-qnx6.5.0/4.6.3\libgcc.a(_udiv_w_sdiv.o)
 .debug_info    0x0000922a      0x449 c:/program files/dspace rcphil 2016-a/compiler/qnx650_463/host/win32/x86/usr/bin/../lib/gcc/powerpc-unknown-nto-qnx6.5.0/4.6.3\libgcc.a(_udivmoddi4.o)
 .debug_info    0x00009673      0x28c c:/program files/dspace rcphil 2016-a/compiler/qnx650_463/host/win32/x86/usr/bin/../lib/gcc/powerpc-unknown-nto-qnx6.5.0/4.6.3\libgcc.a(_pack_sf.o)
 .debug_info    0x000098ff      0x20e c:/program files/dspace rcphil 2016-a/compiler/qnx650_463/host/win32/x86/usr/bin/../lib/gcc/powerpc-unknown-nto-qnx6.5.0/4.6.3\libgcc.a(_unpack_sf.o)
 .debug_info    0x00009b0d      0x3fd c:/program files/dspace rcphil 2016-a/compiler/qnx650_463/host/win32/x86/usr/bin/../lib/gcc/powerpc-unknown-nto-qnx6.5.0/4.6.3\libgcc.a(_addsub_sf.o)
 .debug_info    0x00009f0a      0x353 c:/program files/dspace rcphil 2016-a/compiler/qnx650_463/host/win32/x86/usr/bin/../lib/gcc/powerpc-unknown-nto-qnx6.5.0/4.6.3\libgcc.a(_mul_sf.o)
 .debug_info    0x0000a25d      0x32f c:/program files/dspace rcphil 2016-a/compiler/qnx650_463/host/win32/x86/usr/bin/../lib/gcc/powerpc-unknown-nto-qnx6.5.0/4.6.3\libgcc.a(_div_sf.o)
 .debug_info    0x0000a58c      0x1ed c:/program files/dspace rcphil 2016-a/compiler/qnx650_463/host/win32/x86/usr/bin/../lib/gcc/powerpc-unknown-nto-qnx6.5.0/4.6.3\libgcc.a(_fpcmp_parts_sf.o)
 .debug_info    0x0000a779      0x21c c:/program files/dspace rcphil 2016-a/compiler/qnx650_463/host/win32/x86/usr/bin/../lib/gcc/powerpc-unknown-nto-qnx6.5.0/4.6.3\libgcc.a(_compare_sf.o)
 .debug_info    0x0000a995      0x23d c:/program files/dspace rcphil 2016-a/compiler/qnx650_463/host/win32/x86/usr/bin/../lib/gcc/powerpc-unknown-nto-qnx6.5.0/4.6.3\libgcc.a(_eq_sf.o)
 .debug_info    0x0000abd2      0x23d c:/program files/dspace rcphil 2016-a/compiler/qnx650_463/host/win32/x86/usr/bin/../lib/gcc/powerpc-unknown-nto-qnx6.5.0/4.6.3\libgcc.a(_ne_sf.o)
 .debug_info    0x0000ae0f      0x23d c:/program files/dspace rcphil 2016-a/compiler/qnx650_463/host/win32/x86/usr/bin/../lib/gcc/powerpc-unknown-nto-qnx6.5.0/4.6.3\libgcc.a(_gt_sf.o)
 .debug_info    0x0000b04c      0x23d c:/program files/dspace rcphil 2016-a/compiler/qnx650_463/host/win32/x86/usr/bin/../lib/gcc/powerpc-unknown-nto-qnx6.5.0/4.6.3\libgcc.a(_ge_sf.o)
 .debug_info    0x0000b289      0x23d c:/program files/dspace rcphil 2016-a/compiler/qnx650_463/host/win32/x86/usr/bin/../lib/gcc/powerpc-unknown-nto-qnx6.5.0/4.6.3\libgcc.a(_lt_sf.o)
 .debug_info    0x0000b4c6      0x23d c:/program files/dspace rcphil 2016-a/compiler/qnx650_463/host/win32/x86/usr/bin/../lib/gcc/powerpc-unknown-nto-qnx6.5.0/4.6.3\libgcc.a(_le_sf.o)
 .debug_info    0x0000b703      0x23d c:/program files/dspace rcphil 2016-a/compiler/qnx650_463/host/win32/x86/usr/bin/../lib/gcc/powerpc-unknown-nto-qnx6.5.0/4.6.3\libgcc.a(_unord_sf.o)
 .debug_info    0x0000b940      0x232 c:/program files/dspace rcphil 2016-a/compiler/qnx650_463/host/win32/x86/usr/bin/../lib/gcc/powerpc-unknown-nto-qnx6.5.0/4.6.3\libgcc.a(_si_to_sf.o)
 .debug_info    0x0000bb72      0x258 c:/program files/dspace rcphil 2016-a/compiler/qnx650_463/host/win32/x86/usr/bin/../lib/gcc/powerpc-unknown-nto-qnx6.5.0/4.6.3\libgcc.a(_sf_to_si.o)
 .debug_info    0x0000bdca      0x213 c:/program files/dspace rcphil 2016-a/compiler/qnx650_463/host/win32/x86/usr/bin/../lib/gcc/powerpc-unknown-nto-qnx6.5.0/4.6.3\libgcc.a(_negate_sf.o)
 .debug_info    0x0000bfdd      0x1d0 c:/program files/dspace rcphil 2016-a/compiler/qnx650_463/host/win32/x86/usr/bin/../lib/gcc/powerpc-unknown-nto-qnx6.5.0/4.6.3\libgcc.a(_make_sf.o)
 .debug_info    0x0000c1ad      0x1fd c:/program files/dspace rcphil 2016-a/compiler/qnx650_463/host/win32/x86/usr/bin/../lib/gcc/powerpc-unknown-nto-qnx6.5.0/4.6.3\libgcc.a(_sf_to_df.o)
 .debug_info    0x0000c3aa     0x1cb8 c:/program files/dspace rcphil 2016-a/compiler/qnx650_463/host/win32/x86/usr/bin/../lib/gcc/powerpc-unknown-nto-qnx6.5.0/4.6.3\libgcc.a(_thenan_sf.o)
 .debug_info    0x0000e062      0x158 c:/program files/dspace rcphil 2016-a/compiler/qnx650_463/host/win32/x86/usr/bin/../lib/gcc/powerpc-unknown-nto-qnx6.5.0/4.6.3\libgcc.a(_sf_to_usi.o)
 .debug_info    0x0000e1ba      0x22d c:/program files/dspace rcphil 2016-a/compiler/qnx650_463/host/win32/x86/usr/bin/../lib/gcc/powerpc-unknown-nto-qnx6.5.0/4.6.3\libgcc.a(_usi_to_sf.o)
 .debug_info    0x0000e3e7      0x291 c:/program files/dspace rcphil 2016-a/compiler/qnx650_463/host/win32/x86/usr/bin/../lib/gcc/powerpc-unknown-nto-qnx6.5.0/4.6.3\libgcc.a(_pack_df.o)
 .debug_info    0x0000e678      0x216 c:/program files/dspace rcphil 2016-a/compiler/qnx650_463/host/win32/x86/usr/bin/../lib/gcc/powerpc-unknown-nto-qnx6.5.0/4.6.3\libgcc.a(_unpack_df.o)
 .debug_info    0x0000e88e      0x40c c:/program files/dspace rcphil 2016-a/compiler/qnx650_463/host/win32/x86/usr/bin/../lib/gcc/powerpc-unknown-nto-qnx6.5.0/4.6.3\libgcc.a(_addsub_df.o)
 .debug_info    0x0000ec9a      0x420 c:/program files/dspace rcphil 2016-a/compiler/qnx650_463/host/win32/x86/usr/bin/../lib/gcc/powerpc-unknown-nto-qnx6.5.0/4.6.3\libgcc.a(_mul_df.o)
 .debug_info    0x0000f0ba      0x33e c:/program files/dspace rcphil 2016-a/compiler/qnx650_463/host/win32/x86/usr/bin/../lib/gcc/powerpc-unknown-nto-qnx6.5.0/4.6.3\libgcc.a(_div_df.o)
 .debug_info    0x0000f3f8      0x1ed c:/program files/dspace rcphil 2016-a/compiler/qnx650_463/host/win32/x86/usr/bin/../lib/gcc/powerpc-unknown-nto-qnx6.5.0/4.6.3\libgcc.a(_fpcmp_parts_df.o)
 .debug_info    0x0000f5e5      0x229 c:/program files/dspace rcphil 2016-a/compiler/qnx650_463/host/win32/x86/usr/bin/../lib/gcc/powerpc-unknown-nto-qnx6.5.0/4.6.3\libgcc.a(_compare_df.o)
 .debug_info    0x0000f80e      0x24a c:/program files/dspace rcphil 2016-a/compiler/qnx650_463/host/win32/x86/usr/bin/../lib/gcc/powerpc-unknown-nto-qnx6.5.0/4.6.3\libgcc.a(_eq_df.o)
 .debug_info    0x0000fa58      0x24a c:/program files/dspace rcphil 2016-a/compiler/qnx650_463/host/win32/x86/usr/bin/../lib/gcc/powerpc-unknown-nto-qnx6.5.0/4.6.3\libgcc.a(_ne_df.o)
 .debug_info    0x0000fca2      0x24a c:/program files/dspace rcphil 2016-a/compiler/qnx650_463/host/win32/x86/usr/bin/../lib/gcc/powerpc-unknown-nto-qnx6.5.0/4.6.3\libgcc.a(_gt_df.o)
 .debug_info    0x0000feec      0x24a c:/program files/dspace rcphil 2016-a/compiler/qnx650_463/host/win32/x86/usr/bin/../lib/gcc/powerpc-unknown-nto-qnx6.5.0/4.6.3\libgcc.a(_ge_df.o)
 .debug_info    0x00010136      0x24a c:/program files/dspace rcphil 2016-a/compiler/qnx650_463/host/win32/x86/usr/bin/../lib/gcc/powerpc-unknown-nto-qnx6.5.0/4.6.3\libgcc.a(_lt_df.o)
 .debug_info    0x00010380      0x24a c:/program files/dspace rcphil 2016-a/compiler/qnx650_463/host/win32/x86/usr/bin/../lib/gcc/powerpc-unknown-nto-qnx6.5.0/4.6.3\libgcc.a(_le_df.o)
 .debug_info    0x000105ca      0x24a c:/program files/dspace rcphil 2016-a/compiler/qnx650_463/host/win32/x86/usr/bin/../lib/gcc/powerpc-unknown-nto-qnx6.5.0/4.6.3\libgcc.a(_unord_df.o)
 .debug_info    0x00010814      0x232 c:/program files/dspace rcphil 2016-a/compiler/qnx650_463/host/win32/x86/usr/bin/../lib/gcc/powerpc-unknown-nto-qnx6.5.0/4.6.3\libgcc.a(_si_to_df.o)
 .debug_info    0x00010a46      0x264 c:/program files/dspace rcphil 2016-a/compiler/qnx650_463/host/win32/x86/usr/bin/../lib/gcc/powerpc-unknown-nto-qnx6.5.0/4.6.3\libgcc.a(_df_to_si.o)
 .debug_info    0x00010caa      0x21f c:/program files/dspace rcphil 2016-a/compiler/qnx650_463/host/win32/x86/usr/bin/../lib/gcc/powerpc-unknown-nto-qnx6.5.0/4.6.3\libgcc.a(_negate_df.o)
 .debug_info    0x00010ec9      0x1d0 c:/program files/dspace rcphil 2016-a/compiler/qnx650_463/host/win32/x86/usr/bin/../lib/gcc/powerpc-unknown-nto-qnx6.5.0/4.6.3\libgcc.a(_make_df.o)
 .debug_info    0x00011099      0x20e c:/program files/dspace rcphil 2016-a/compiler/qnx650_463/host/win32/x86/usr/bin/../lib/gcc/powerpc-unknown-nto-qnx6.5.0/4.6.3\libgcc.a(_df_to_sf.o)
 .debug_info    0x000112a7     0x1cb8 c:/program files/dspace rcphil 2016-a/compiler/qnx650_463/host/win32/x86/usr/bin/../lib/gcc/powerpc-unknown-nto-qnx6.5.0/4.6.3\libgcc.a(_thenan_df.o)
 .debug_info    0x00012f5f      0x158 c:/program files/dspace rcphil 2016-a/compiler/qnx650_463/host/win32/x86/usr/bin/../lib/gcc/powerpc-unknown-nto-qnx6.5.0/4.6.3\libgcc.a(_df_to_usi.o)
 .debug_info    0x000130b7      0x229 c:/program files/dspace rcphil 2016-a/compiler/qnx650_463/host/win32/x86/usr/bin/../lib/gcc/powerpc-unknown-nto-qnx6.5.0/4.6.3\libgcc.a(_usi_to_df.o)
 .debug_info    0x000132e0       0x8b c:/program files/dspace rcphil 2016-a/compiler/qnx650_463/host/win32/x86/usr/bin/../lib/gcc/powerpc-unknown-nto-qnx6.5.0/4.6.3\libgcc.a(tramp.o)
 .debug_info    0x0001336b       0x8f c:/program files/dspace rcphil 2016-a/compiler/qnx650_463/host/win32/x86/usr/bin/../lib/gcc/powerpc-unknown-nto-qnx6.5.0/4.6.3\libgcc.a(crtsavfpr.o)
 .debug_info    0x000133fa       0x8f c:/program files/dspace rcphil 2016-a/compiler/qnx650_463/host/win32/x86/usr/bin/../lib/gcc/powerpc-unknown-nto-qnx6.5.0/4.6.3\libgcc.a(crtresfpr.o)
 .debug_info    0x00013489       0x8f c:/program files/dspace rcphil 2016-a/compiler/qnx650_463/host/win32/x86/usr/bin/../lib/gcc/powerpc-unknown-nto-qnx6.5.0/4.6.3\libgcc.a(crtsavgpr.o)
 .debug_info    0x00013518       0x8f c:/program files/dspace rcphil 2016-a/compiler/qnx650_463/host/win32/x86/usr/bin/../lib/gcc/powerpc-unknown-nto-qnx6.5.0/4.6.3\libgcc.a(crtresgpr.o)
 .debug_info    0x000135a7       0x90 c:/program files/dspace rcphil 2016-a/compiler/qnx650_463/host/win32/x86/usr/bin/../lib/gcc/powerpc-unknown-nto-qnx6.5.0/4.6.3\libgcc.a(crtresxfpr.o)
 .debug_info    0x00013637       0x90 c:/program files/dspace rcphil 2016-a/compiler/qnx650_463/host/win32/x86/usr/bin/../lib/gcc/powerpc-unknown-nto-qnx6.5.0/4.6.3\libgcc.a(crtresxgpr.o)
 .debug_info    0x000136c7     0x54dd c:/program files/dspace rcphil 2016-a/compiler/qnx650_463/host/win32/x86/usr/bin/../lib/gcc/powerpc-unknown-nto-qnx6.5.0/4.6.3\libgcc.a(unwind-dw2.o)
 .debug_info    0x00018ba4     0x367f c:/program files/dspace rcphil 2016-a/compiler/qnx650_463/host/win32/x86/usr/bin/../lib/gcc/powerpc-unknown-nto-qnx6.5.0/4.6.3\libgcc.a(unwind-dw2-fde.o)
 .debug_info    0x0001c223       0x7a c:/program files/dspace rcphil 2016-a/compiler/qnx650_463/host/win32/x86/usr/bin/../lib/gcc/powerpc-unknown-nto-qnx6.5.0/4.6.3\libgcc.a(unwind-sjlj.o)
 .debug_info    0x0001c29d      0x88d c:/program files/dspace rcphil 2016-a/compiler/qnx650_463/host/win32/x86/usr/bin/../lib/gcc/powerpc-unknown-nto-qnx6.5.0/4.6.3\libgcc.a(unwind-c.o)
 .debug_info    0x0001cb2a     0x2150 c:/program files/dspace rcphil 2016-a/compiler/qnx650_463/host/win32/x86/usr/bin/../lib/gcc/powerpc-unknown-nto-qnx6.5.0/4.6.3\libgcc.a(emutls.o)

.debug_abbrev   0x00000000     0x6ae5
 *(.debug_abbrev)
 .debug_abbrev  0x00000000       0xee c:/program files/dspace rcphil 2016-a/compiler/qnx650_463/host/win32/x86/usr/bin/../lib/gcc/powerpc-unknown-nto-qnx6.5.0/4.6.3\libgcc.a(_muldi3.o)
 .debug_abbrev  0x000000ee       0xc7 c:/program files/dspace rcphil 2016-a/compiler/qnx650_463/host/win32/x86/usr/bin/../lib/gcc/powerpc-unknown-nto-qnx6.5.0/4.6.3\libgcc.a(_negdi2.o)
 .debug_abbrev  0x000001b5       0xee c:/program files/dspace rcphil 2016-a/compiler/qnx650_463/host/win32/x86/usr/bin/../lib/gcc/powerpc-unknown-nto-qnx6.5.0/4.6.3\libgcc.a(_lshrdi3.o)
 .debug_abbrev  0x000002a3       0xee c:/program files/dspace rcphil 2016-a/compiler/qnx650_463/host/win32/x86/usr/bin/../lib/gcc/powerpc-unknown-nto-qnx6.5.0/4.6.3\libgcc.a(_ashldi3.o)
 .debug_abbrev  0x00000391       0xee c:/program files/dspace rcphil 2016-a/compiler/qnx650_463/host/win32/x86/usr/bin/../lib/gcc/powerpc-unknown-nto-qnx6.5.0/4.6.3\libgcc.a(_ashrdi3.o)
 .debug_abbrev  0x0000047f       0xd6 c:/program files/dspace rcphil 2016-a/compiler/qnx650_463/host/win32/x86/usr/bin/../lib/gcc/powerpc-unknown-nto-qnx6.5.0/4.6.3\libgcc.a(_cmpdi2.o)
 .debug_abbrev  0x00000555       0xd6 c:/program files/dspace rcphil 2016-a/compiler/qnx650_463/host/win32/x86/usr/bin/../lib/gcc/powerpc-unknown-nto-qnx6.5.0/4.6.3\libgcc.a(_ucmpdi2.o)
 .debug_abbrev  0x0000062b       0x59 c:/program files/dspace rcphil 2016-a/compiler/qnx650_463/host/win32/x86/usr/bin/../lib/gcc/powerpc-unknown-nto-qnx6.5.0/4.6.3\libgcc.a(_clear_cache.o)
 .debug_abbrev  0x00000684       0x55 c:/program files/dspace rcphil 2016-a/compiler/qnx650_463/host/win32/x86/usr/bin/../lib/gcc/powerpc-unknown-nto-qnx6.5.0/4.6.3\libgcc.a(_enable_execute_stack.o)
 .debug_abbrev  0x000006d9       0x2a c:/program files/dspace rcphil 2016-a/compiler/qnx650_463/host/win32/x86/usr/bin/../lib/gcc/powerpc-unknown-nto-qnx6.5.0/4.6.3\libgcc.a(_trampoline.o)
 .debug_abbrev  0x00000703       0x2a c:/program files/dspace rcphil 2016-a/compiler/qnx650_463/host/win32/x86/usr/bin/../lib/gcc/powerpc-unknown-nto-qnx6.5.0/4.6.3\libgcc.a(__main.o)
 .debug_abbrev  0x0000072d       0x6c c:/program files/dspace rcphil 2016-a/compiler/qnx650_463/host/win32/x86/usr/bin/../lib/gcc/powerpc-unknown-nto-qnx6.5.0/4.6.3\libgcc.a(_absvsi2.o)
 .debug_abbrev  0x00000799       0x6c c:/program files/dspace rcphil 2016-a/compiler/qnx650_463/host/win32/x86/usr/bin/../lib/gcc/powerpc-unknown-nto-qnx6.5.0/4.6.3\libgcc.a(_absvdi2.o)
 .debug_abbrev  0x00000805       0x75 c:/program files/dspace rcphil 2016-a/compiler/qnx650_463/host/win32/x86/usr/bin/../lib/gcc/powerpc-unknown-nto-qnx6.5.0/4.6.3\libgcc.a(_addvsi3.o)
 .debug_abbrev  0x0000087a       0x75 c:/program files/dspace rcphil 2016-a/compiler/qnx650_463/host/win32/x86/usr/bin/../lib/gcc/powerpc-unknown-nto-qnx6.5.0/4.6.3\libgcc.a(_addvdi3.o)
 .debug_abbrev  0x000008ef       0x75 c:/program files/dspace rcphil 2016-a/compiler/qnx650_463/host/win32/x86/usr/bin/../lib/gcc/powerpc-unknown-nto-qnx6.5.0/4.6.3\libgcc.a(_subvsi3.o)
 .debug_abbrev  0x00000964       0x75 c:/program files/dspace rcphil 2016-a/compiler/qnx650_463/host/win32/x86/usr/bin/../lib/gcc/powerpc-unknown-nto-qnx6.5.0/4.6.3\libgcc.a(_subvdi3.o)
 .debug_abbrev  0x000009d9       0x75 c:/program files/dspace rcphil 2016-a/compiler/qnx650_463/host/win32/x86/usr/bin/../lib/gcc/powerpc-unknown-nto-qnx6.5.0/4.6.3\libgcc.a(_mulvsi3.o)
 .debug_abbrev  0x00000a4e       0xf1 c:/program files/dspace rcphil 2016-a/compiler/qnx650_463/host/win32/x86/usr/bin/../lib/gcc/powerpc-unknown-nto-qnx6.5.0/4.6.3\libgcc.a(_mulvdi3.o)
 .debug_abbrev  0x00000b3f       0x75 c:/program files/dspace rcphil 2016-a/compiler/qnx650_463/host/win32/x86/usr/bin/../lib/gcc/powerpc-unknown-nto-qnx6.5.0/4.6.3\libgcc.a(_negvsi2.o)
 .debug_abbrev  0x00000bb4       0x75 c:/program files/dspace rcphil 2016-a/compiler/qnx650_463/host/win32/x86/usr/bin/../lib/gcc/powerpc-unknown-nto-qnx6.5.0/4.6.3\libgcc.a(_negvdi2.o)
 .debug_abbrev  0x00000c29       0x2a c:/program files/dspace rcphil 2016-a/compiler/qnx650_463/host/win32/x86/usr/bin/../lib/gcc/powerpc-unknown-nto-qnx6.5.0/4.6.3\libgcc.a(_ctors.o)
 .debug_abbrev  0x00000c53       0x84 c:/program files/dspace rcphil 2016-a/compiler/qnx650_463/host/win32/x86/usr/bin/../lib/gcc/powerpc-unknown-nto-qnx6.5.0/4.6.3\libgcc.a(_ffssi2.o)
 .debug_abbrev  0x00000cd7       0xec c:/program files/dspace rcphil 2016-a/compiler/qnx650_463/host/win32/x86/usr/bin/../lib/gcc/powerpc-unknown-nto-qnx6.5.0/4.6.3\libgcc.a(_ffsdi2.o)
 .debug_abbrev  0x00000dc3       0x79 c:/program files/dspace rcphil 2016-a/compiler/qnx650_463/host/win32/x86/usr/bin/../lib/gcc/powerpc-unknown-nto-qnx6.5.0/4.6.3\libgcc.a(_clz.o)
 .debug_abbrev  0x00000e3c       0x6c c:/program files/dspace rcphil 2016-a/compiler/qnx650_463/host/win32/x86/usr/bin/../lib/gcc/powerpc-unknown-nto-qnx6.5.0/4.6.3\libgcc.a(_clzsi2.o)
 .debug_abbrev  0x00000ea8       0xf4 c:/program files/dspace rcphil 2016-a/compiler/qnx650_463/host/win32/x86/usr/bin/../lib/gcc/powerpc-unknown-nto-qnx6.5.0/4.6.3\libgcc.a(_clzdi2.o)
 .debug_abbrev  0x00000f9c       0x82 c:/program files/dspace rcphil 2016-a/compiler/qnx650_463/host/win32/x86/usr/bin/../lib/gcc/powerpc-unknown-nto-qnx6.5.0/4.6.3\libgcc.a(_ctzsi2.o)
 .debug_abbrev  0x0000101e       0xec c:/program files/dspace rcphil 2016-a/compiler/qnx650_463/host/win32/x86/usr/bin/../lib/gcc/powerpc-unknown-nto-qnx6.5.0/4.6.3\libgcc.a(_ctzdi2.o)
 .debug_abbrev  0x0000110a       0x79 c:/program files/dspace rcphil 2016-a/compiler/qnx650_463/host/win32/x86/usr/bin/../lib/gcc/powerpc-unknown-nto-qnx6.5.0/4.6.3\libgcc.a(_popcount_tab.o)
 .debug_abbrev  0x00001183       0x98 c:/program files/dspace rcphil 2016-a/compiler/qnx650_463/host/win32/x86/usr/bin/../lib/gcc/powerpc-unknown-nto-qnx6.5.0/4.6.3\libgcc.a(_popcountsi2.o)
 .debug_abbrev  0x0000121b       0x98 c:/program files/dspace rcphil 2016-a/compiler/qnx650_463/host/win32/x86/usr/bin/../lib/gcc/powerpc-unknown-nto-qnx6.5.0/4.6.3\libgcc.a(_popcountdi2.o)
 .debug_abbrev  0x000012b3       0x5d c:/program files/dspace rcphil 2016-a/compiler/qnx650_463/host/win32/x86/usr/bin/../lib/gcc/powerpc-unknown-nto-qnx6.5.0/4.6.3\libgcc.a(_paritysi2.o)
 .debug_abbrev  0x00001310       0xd6 c:/program files/dspace rcphil 2016-a/compiler/qnx650_463/host/win32/x86/usr/bin/../lib/gcc/powerpc-unknown-nto-qnx6.5.0/4.6.3\libgcc.a(_paritydi2.o)
 .debug_abbrev  0x000013e6       0x7b c:/program files/dspace rcphil 2016-a/compiler/qnx650_463/host/win32/x86/usr/bin/../lib/gcc/powerpc-unknown-nto-qnx6.5.0/4.6.3\libgcc.a(_powisf2.o)
 .debug_abbrev  0x00001461       0x7b c:/program files/dspace rcphil 2016-a/compiler/qnx650_463/host/win32/x86/usr/bin/../lib/gcc/powerpc-unknown-nto-qnx6.5.0/4.6.3\libgcc.a(_powidf2.o)
 .debug_abbrev  0x000014dc       0x2a c:/program files/dspace rcphil 2016-a/compiler/qnx650_463/host/win32/x86/usr/bin/../lib/gcc/powerpc-unknown-nto-qnx6.5.0/4.6.3\libgcc.a(_powixf2.o)
 .debug_abbrev  0x00001506       0x2a c:/program files/dspace rcphil 2016-a/compiler/qnx650_463/host/win32/x86/usr/bin/../lib/gcc/powerpc-unknown-nto-qnx6.5.0/4.6.3\libgcc.a(_powitf2.o)
 .debug_abbrev  0x00001530       0x95 c:/program files/dspace rcphil 2016-a/compiler/qnx650_463/host/win32/x86/usr/bin/../lib/gcc/powerpc-unknown-nto-qnx6.5.0/4.6.3\libgcc.a(_mulsc3.o)
 .debug_abbrev  0x000015c5       0x95 c:/program files/dspace rcphil 2016-a/compiler/qnx650_463/host/win32/x86/usr/bin/../lib/gcc/powerpc-unknown-nto-qnx6.5.0/4.6.3\libgcc.a(_muldc3.o)
 .debug_abbrev  0x0000165a       0x2a c:/program files/dspace rcphil 2016-a/compiler/qnx650_463/host/win32/x86/usr/bin/../lib/gcc/powerpc-unknown-nto-qnx6.5.0/4.6.3\libgcc.a(_mulxc3.o)
 .debug_abbrev  0x00001684       0x2a c:/program files/dspace rcphil 2016-a/compiler/qnx650_463/host/win32/x86/usr/bin/../lib/gcc/powerpc-unknown-nto-qnx6.5.0/4.6.3\libgcc.a(_multc3.o)
 .debug_abbrev  0x000016ae       0x7b c:/program files/dspace rcphil 2016-a/compiler/qnx650_463/host/win32/x86/usr/bin/../lib/gcc/powerpc-unknown-nto-qnx6.5.0/4.6.3\libgcc.a(_divsc3.o)
 .debug_abbrev  0x00001729       0x7b c:/program files/dspace rcphil 2016-a/compiler/qnx650_463/host/win32/x86/usr/bin/../lib/gcc/powerpc-unknown-nto-qnx6.5.0/4.6.3\libgcc.a(_divdc3.o)
 .debug_abbrev  0x000017a4       0x2a c:/program files/dspace rcphil 2016-a/compiler/qnx650_463/host/win32/x86/usr/bin/../lib/gcc/powerpc-unknown-nto-qnx6.5.0/4.6.3\libgcc.a(_divxc3.o)
 .debug_abbrev  0x000017ce       0x2a c:/program files/dspace rcphil 2016-a/compiler/qnx650_463/host/win32/x86/usr/bin/../lib/gcc/powerpc-unknown-nto-qnx6.5.0/4.6.3\libgcc.a(_divtc3.o)
 .debug_abbrev  0x000017f8       0x5d c:/program files/dspace rcphil 2016-a/compiler/qnx650_463/host/win32/x86/usr/bin/../lib/gcc/powerpc-unknown-nto-qnx6.5.0/4.6.3\libgcc.a(_bswapsi2.o)
 .debug_abbrev  0x00001855       0x5d c:/program files/dspace rcphil 2016-a/compiler/qnx650_463/host/win32/x86/usr/bin/../lib/gcc/powerpc-unknown-nto-qnx6.5.0/4.6.3\libgcc.a(_bswapdi2.o)
 .debug_abbrev  0x000018b2       0x5d c:/program files/dspace rcphil 2016-a/compiler/qnx650_463/host/win32/x86/usr/bin/../lib/gcc/powerpc-unknown-nto-qnx6.5.0/4.6.3\libgcc.a(_fixunssfsi.o)
 .debug_abbrev  0x0000190f       0x5d c:/program files/dspace rcphil 2016-a/compiler/qnx650_463/host/win32/x86/usr/bin/../lib/gcc/powerpc-unknown-nto-qnx6.5.0/4.6.3\libgcc.a(_fixunsdfsi.o)
 .debug_abbrev  0x0000196c       0x2a c:/program files/dspace rcphil 2016-a/compiler/qnx650_463/host/win32/x86/usr/bin/../lib/gcc/powerpc-unknown-nto-qnx6.5.0/4.6.3\libgcc.a(_fixunsxfsi.o)
 .debug_abbrev  0x00001996       0x5d c:/program files/dspace rcphil 2016-a/compiler/qnx650_463/host/win32/x86/usr/bin/../lib/gcc/powerpc-unknown-nto-qnx6.5.0/4.6.3\libgcc.a(_fixsfdi.o)
 .debug_abbrev  0x000019f3       0x5d c:/program files/dspace rcphil 2016-a/compiler/qnx650_463/host/win32/x86/usr/bin/../lib/gcc/powerpc-unknown-nto-qnx6.5.0/4.6.3\libgcc.a(_fixdfdi.o)
 .debug_abbrev  0x00001a50       0x2a c:/program files/dspace rcphil 2016-a/compiler/qnx650_463/host/win32/x86/usr/bin/../lib/gcc/powerpc-unknown-nto-qnx6.5.0/4.6.3\libgcc.a(_fixxfdi.o)
 .debug_abbrev  0x00001a7a       0x2a c:/program files/dspace rcphil 2016-a/compiler/qnx650_463/host/win32/x86/usr/bin/../lib/gcc/powerpc-unknown-nto-qnx6.5.0/4.6.3\libgcc.a(_fixtfdi.o)
 .debug_abbrev  0x00001aa4       0x91 c:/program files/dspace rcphil 2016-a/compiler/qnx650_463/host/win32/x86/usr/bin/../lib/gcc/powerpc-unknown-nto-qnx6.5.0/4.6.3\libgcc.a(_fixunssfdi.o)
 .debug_abbrev  0x00001b35       0x82 c:/program files/dspace rcphil 2016-a/compiler/qnx650_463/host/win32/x86/usr/bin/../lib/gcc/powerpc-unknown-nto-qnx6.5.0/4.6.3\libgcc.a(_fixunsdfdi.o)
 .debug_abbrev  0x00001bb7       0x2a c:/program files/dspace rcphil 2016-a/compiler/qnx650_463/host/win32/x86/usr/bin/../lib/gcc/powerpc-unknown-nto-qnx6.5.0/4.6.3\libgcc.a(_fixunsxfdi.o)
 .debug_abbrev  0x00001be1       0x2a c:/program files/dspace rcphil 2016-a/compiler/qnx650_463/host/win32/x86/usr/bin/../lib/gcc/powerpc-unknown-nto-qnx6.5.0/4.6.3\libgcc.a(_fixunstfdi.o)
 .debug_abbrev  0x00001c0b       0x6a c:/program files/dspace rcphil 2016-a/compiler/qnx650_463/host/win32/x86/usr/bin/../lib/gcc/powerpc-unknown-nto-qnx6.5.0/4.6.3\libgcc.a(_floatdisf.o)
 .debug_abbrev  0x00001c75       0x6a c:/program files/dspace rcphil 2016-a/compiler/qnx650_463/host/win32/x86/usr/bin/../lib/gcc/powerpc-unknown-nto-qnx6.5.0/4.6.3\libgcc.a(_floatdidf.o)
 .debug_abbrev  0x00001cdf       0x2a c:/program files/dspace rcphil 2016-a/compiler/qnx650_463/host/win32/x86/usr/bin/../lib/gcc/powerpc-unknown-nto-qnx6.5.0/4.6.3\libgcc.a(_floatdixf.o)
 .debug_abbrev  0x00001d09       0x2a c:/program files/dspace rcphil 2016-a/compiler/qnx650_463/host/win32/x86/usr/bin/../lib/gcc/powerpc-unknown-nto-qnx6.5.0/4.6.3\libgcc.a(_floatditf.o)
 .debug_abbrev  0x00001d33       0x6a c:/program files/dspace rcphil 2016-a/compiler/qnx650_463/host/win32/x86/usr/bin/../lib/gcc/powerpc-unknown-nto-qnx6.5.0/4.6.3\libgcc.a(_floatundisf.o)
 .debug_abbrev  0x00001d9d       0x6a c:/program files/dspace rcphil 2016-a/compiler/qnx650_463/host/win32/x86/usr/bin/../lib/gcc/powerpc-unknown-nto-qnx6.5.0/4.6.3\libgcc.a(_floatundidf.o)
 .debug_abbrev  0x00001e07       0x2a c:/program files/dspace rcphil 2016-a/compiler/qnx650_463/host/win32/x86/usr/bin/../lib/gcc/powerpc-unknown-nto-qnx6.5.0/4.6.3\libgcc.a(_floatundixf.o)
 .debug_abbrev  0x00001e31       0x2a c:/program files/dspace rcphil 2016-a/compiler/qnx650_463/host/win32/x86/usr/bin/../lib/gcc/powerpc-unknown-nto-qnx6.5.0/4.6.3\libgcc.a(_floatunditf.o)
 .debug_abbrev  0x00001e5b       0xe0 c:/program files/dspace rcphil 2016-a/compiler/qnx650_463/host/win32/x86/usr/bin/../lib/gcc/powerpc-unknown-nto-qnx6.5.0/4.6.3\libgcc.a(_eprintf.o)
 .debug_abbrev  0x00001f3b       0x94 c:/program files/dspace rcphil 2016-a/compiler/qnx650_463/host/win32/x86/usr/bin/../lib/gcc/powerpc-unknown-nto-qnx6.5.0/4.6.3\libgcc.a(__gcc_bcmp.o)
 .debug_abbrev  0x00001fcf      0x159 c:/program files/dspace rcphil 2016-a/compiler/qnx650_463/host/win32/x86/usr/bin/../lib/gcc/powerpc-unknown-nto-qnx6.5.0/4.6.3\libgcc.a(_divdi3.o)
 .debug_abbrev  0x00002128      0x14e c:/program files/dspace rcphil 2016-a/compiler/qnx650_463/host/win32/x86/usr/bin/../lib/gcc/powerpc-unknown-nto-qnx6.5.0/4.6.3\libgcc.a(_moddi3.o)
 .debug_abbrev  0x00002276      0x15a c:/program files/dspace rcphil 2016-a/compiler/qnx650_463/host/win32/x86/usr/bin/../lib/gcc/powerpc-unknown-nto-qnx6.5.0/4.6.3\libgcc.a(_udivdi3.o)
 .debug_abbrev  0x000023d0      0x15e c:/program files/dspace rcphil 2016-a/compiler/qnx650_463/host/win32/x86/usr/bin/../lib/gcc/powerpc-unknown-nto-qnx6.5.0/4.6.3\libgcc.a(_umoddi3.o)
 .debug_abbrev  0x0000252e       0x77 c:/program files/dspace rcphil 2016-a/compiler/qnx650_463/host/win32/x86/usr/bin/../lib/gcc/powerpc-unknown-nto-qnx6.5.0/4.6.3\libgcc.a(_udiv_w_sdiv.o)
 .debug_abbrev  0x000025a5      0x10d c:/program files/dspace rcphil 2016-a/compiler/qnx650_463/host/win32/x86/usr/bin/../lib/gcc/powerpc-unknown-nto-qnx6.5.0/4.6.3\libgcc.a(_udivmoddi4.o)
 .debug_abbrev  0x000026b2      0x15d c:/program files/dspace rcphil 2016-a/compiler/qnx650_463/host/win32/x86/usr/bin/../lib/gcc/powerpc-unknown-nto-qnx6.5.0/4.6.3\libgcc.a(_pack_sf.o)
 .debug_abbrev  0x0000280f      0x114 c:/program files/dspace rcphil 2016-a/compiler/qnx650_463/host/win32/x86/usr/bin/../lib/gcc/powerpc-unknown-nto-qnx6.5.0/4.6.3\libgcc.a(_unpack_sf.o)
 .debug_abbrev  0x00002923      0x190 c:/program files/dspace rcphil 2016-a/compiler/qnx650_463/host/win32/x86/usr/bin/../lib/gcc/powerpc-unknown-nto-qnx6.5.0/4.6.3\libgcc.a(_addsub_sf.o)
 .debug_abbrev  0x00002ab3      0x1b7 c:/program files/dspace rcphil 2016-a/compiler/qnx650_463/host/win32/x86/usr/bin/../lib/gcc/powerpc-unknown-nto-qnx6.5.0/4.6.3\libgcc.a(_mul_sf.o)
 .debug_abbrev  0x00002c6a      0x1a9 c:/program files/dspace rcphil 2016-a/compiler/qnx650_463/host/win32/x86/usr/bin/../lib/gcc/powerpc-unknown-nto-qnx6.5.0/4.6.3\libgcc.a(_div_sf.o)
 .debug_abbrev  0x00002e13      0x11a c:/program files/dspace rcphil 2016-a/compiler/qnx650_463/host/win32/x86/usr/bin/../lib/gcc/powerpc-unknown-nto-qnx6.5.0/4.6.3\libgcc.a(_fpcmp_parts_sf.o)
 .debug_abbrev  0x00002f2d       0xfe c:/program files/dspace rcphil 2016-a/compiler/qnx650_463/host/win32/x86/usr/bin/../lib/gcc/powerpc-unknown-nto-qnx6.5.0/4.6.3\libgcc.a(_compare_sf.o)
 .debug_abbrev  0x0000302b      0x127 c:/program files/dspace rcphil 2016-a/compiler/qnx650_463/host/win32/x86/usr/bin/../lib/gcc/powerpc-unknown-nto-qnx6.5.0/4.6.3\libgcc.a(_eq_sf.o)
 .debug_abbrev  0x00003152      0x127 c:/program files/dspace rcphil 2016-a/compiler/qnx650_463/host/win32/x86/usr/bin/../lib/gcc/powerpc-unknown-nto-qnx6.5.0/4.6.3\libgcc.a(_ne_sf.o)
 .debug_abbrev  0x00003279      0x127 c:/program files/dspace rcphil 2016-a/compiler/qnx650_463/host/win32/x86/usr/bin/../lib/gcc/powerpc-unknown-nto-qnx6.5.0/4.6.3\libgcc.a(_gt_sf.o)
 .debug_abbrev  0x000033a0      0x127 c:/program files/dspace rcphil 2016-a/compiler/qnx650_463/host/win32/x86/usr/bin/../lib/gcc/powerpc-unknown-nto-qnx6.5.0/4.6.3\libgcc.a(_ge_sf.o)
 .debug_abbrev  0x000034c7      0x127 c:/program files/dspace rcphil 2016-a/compiler/qnx650_463/host/win32/x86/usr/bin/../lib/gcc/powerpc-unknown-nto-qnx6.5.0/4.6.3\libgcc.a(_lt_sf.o)
 .debug_abbrev  0x000035ee      0x127 c:/program files/dspace rcphil 2016-a/compiler/qnx650_463/host/win32/x86/usr/bin/../lib/gcc/powerpc-unknown-nto-qnx6.5.0/4.6.3\libgcc.a(_le_sf.o)
 .debug_abbrev  0x00003715      0x127 c:/program files/dspace rcphil 2016-a/compiler/qnx650_463/host/win32/x86/usr/bin/../lib/gcc/powerpc-unknown-nto-qnx6.5.0/4.6.3\libgcc.a(_unord_sf.o)
 .debug_abbrev  0x0000383c      0x164 c:/program files/dspace rcphil 2016-a/compiler/qnx650_463/host/win32/x86/usr/bin/../lib/gcc/powerpc-unknown-nto-qnx6.5.0/4.6.3\libgcc.a(_si_to_sf.o)
 .debug_abbrev  0x000039a0      0x136 c:/program files/dspace rcphil 2016-a/compiler/qnx650_463/host/win32/x86/usr/bin/../lib/gcc/powerpc-unknown-nto-qnx6.5.0/4.6.3\libgcc.a(_sf_to_si.o)
 .debug_abbrev  0x00003ad6      0x134 c:/program files/dspace rcphil 2016-a/compiler/qnx650_463/host/win32/x86/usr/bin/../lib/gcc/powerpc-unknown-nto-qnx6.5.0/4.6.3\libgcc.a(_negate_sf.o)
 .debug_abbrev  0x00003c0a      0x100 c:/program files/dspace rcphil 2016-a/compiler/qnx650_463/host/win32/x86/usr/bin/../lib/gcc/powerpc-unknown-nto-qnx6.5.0/4.6.3\libgcc.a(_make_sf.o)
 .debug_abbrev  0x00003d0a       0xfe c:/program files/dspace rcphil 2016-a/compiler/qnx650_463/host/win32/x86/usr/bin/../lib/gcc/powerpc-unknown-nto-qnx6.5.0/4.6.3\libgcc.a(_sf_to_df.o)
 .debug_abbrev  0x00003e08       0xc9 c:/program files/dspace rcphil 2016-a/compiler/qnx650_463/host/win32/x86/usr/bin/../lib/gcc/powerpc-unknown-nto-qnx6.5.0/4.6.3\libgcc.a(_thenan_sf.o)
 .debug_abbrev  0x00003ed1       0xba c:/program files/dspace rcphil 2016-a/compiler/qnx650_463/host/win32/x86/usr/bin/../lib/gcc/powerpc-unknown-nto-qnx6.5.0/4.6.3\libgcc.a(_sf_to_usi.o)
 .debug_abbrev  0x00003f8b      0x164 c:/program files/dspace rcphil 2016-a/compiler/qnx650_463/host/win32/x86/usr/bin/../lib/gcc/powerpc-unknown-nto-qnx6.5.0/4.6.3\libgcc.a(_usi_to_sf.o)
 .debug_abbrev  0x000040ef      0x168 c:/program files/dspace rcphil 2016-a/compiler/qnx650_463/host/win32/x86/usr/bin/../lib/gcc/powerpc-unknown-nto-qnx6.5.0/4.6.3\libgcc.a(_pack_df.o)
 .debug_abbrev  0x00004257      0x121 c:/program files/dspace rcphil 2016-a/compiler/qnx650_463/host/win32/x86/usr/bin/../lib/gcc/powerpc-unknown-nto-qnx6.5.0/4.6.3\libgcc.a(_unpack_df.o)
 .debug_abbrev  0x00004378      0x190 c:/program files/dspace rcphil 2016-a/compiler/qnx650_463/host/win32/x86/usr/bin/../lib/gcc/powerpc-unknown-nto-qnx6.5.0/4.6.3\libgcc.a(_addsub_df.o)
 .debug_abbrev  0x00004508      0x1be c:/program files/dspace rcphil 2016-a/compiler/qnx650_463/host/win32/x86/usr/bin/../lib/gcc/powerpc-unknown-nto-qnx6.5.0/4.6.3\libgcc.a(_mul_df.o)
 .debug_abbrev  0x000046c6      0x1a9 c:/program files/dspace rcphil 2016-a/compiler/qnx650_463/host/win32/x86/usr/bin/../lib/gcc/powerpc-unknown-nto-qnx6.5.0/4.6.3\libgcc.a(_div_df.o)
 .debug_abbrev  0x0000486f      0x11a c:/program files/dspace rcphil 2016-a/compiler/qnx650_463/host/win32/x86/usr/bin/../lib/gcc/powerpc-unknown-nto-qnx6.5.0/4.6.3\libgcc.a(_fpcmp_parts_df.o)
 .debug_abbrev  0x00004989       0xfe c:/program files/dspace rcphil 2016-a/compiler/qnx650_463/host/win32/x86/usr/bin/../lib/gcc/powerpc-unknown-nto-qnx6.5.0/4.6.3\libgcc.a(_compare_df.o)
 .debug_abbrev  0x00004a87      0x127 c:/program files/dspace rcphil 2016-a/compiler/qnx650_463/host/win32/x86/usr/bin/../lib/gcc/powerpc-unknown-nto-qnx6.5.0/4.6.3\libgcc.a(_eq_df.o)
 .debug_abbrev  0x00004bae      0x127 c:/program files/dspace rcphil 2016-a/compiler/qnx650_463/host/win32/x86/usr/bin/../lib/gcc/powerpc-unknown-nto-qnx6.5.0/4.6.3\libgcc.a(_ne_df.o)
 .debug_abbrev  0x00004cd5      0x127 c:/program files/dspace rcphil 2016-a/compiler/qnx650_463/host/win32/x86/usr/bin/../lib/gcc/powerpc-unknown-nto-qnx6.5.0/4.6.3\libgcc.a(_gt_df.o)
 .debug_abbrev  0x00004dfc      0x127 c:/program files/dspace rcphil 2016-a/compiler/qnx650_463/host/win32/x86/usr/bin/../lib/gcc/powerpc-unknown-nto-qnx6.5.0/4.6.3\libgcc.a(_ge_df.o)
 .debug_abbrev  0x00004f23      0x127 c:/program files/dspace rcphil 2016-a/compiler/qnx650_463/host/win32/x86/usr/bin/../lib/gcc/powerpc-unknown-nto-qnx6.5.0/4.6.3\libgcc.a(_lt_df.o)
 .debug_abbrev  0x0000504a      0x127 c:/program files/dspace rcphil 2016-a/compiler/qnx650_463/host/win32/x86/usr/bin/../lib/gcc/powerpc-unknown-nto-qnx6.5.0/4.6.3\libgcc.a(_le_df.o)
 .debug_abbrev  0x00005171      0x127 c:/program files/dspace rcphil 2016-a/compiler/qnx650_463/host/win32/x86/usr/bin/../lib/gcc/powerpc-unknown-nto-qnx6.5.0/4.6.3\libgcc.a(_unord_df.o)
 .debug_abbrev  0x00005298      0x164 c:/program files/dspace rcphil 2016-a/compiler/qnx650_463/host/win32/x86/usr/bin/../lib/gcc/powerpc-unknown-nto-qnx6.5.0/4.6.3\libgcc.a(_si_to_df.o)
 .debug_abbrev  0x000053fc      0x136 c:/program files/dspace rcphil 2016-a/compiler/qnx650_463/host/win32/x86/usr/bin/../lib/gcc/powerpc-unknown-nto-qnx6.5.0/4.6.3\libgcc.a(_df_to_si.o)
 .debug_abbrev  0x00005532      0x134 c:/program files/dspace rcphil 2016-a/compiler/qnx650_463/host/win32/x86/usr/bin/../lib/gcc/powerpc-unknown-nto-qnx6.5.0/4.6.3\libgcc.a(_negate_df.o)
 .debug_abbrev  0x00005666      0x100 c:/program files/dspace rcphil 2016-a/compiler/qnx650_463/host/win32/x86/usr/bin/../lib/gcc/powerpc-unknown-nto-qnx6.5.0/4.6.3\libgcc.a(_make_df.o)
 .debug_abbrev  0x00005766      0x10d c:/program files/dspace rcphil 2016-a/compiler/qnx650_463/host/win32/x86/usr/bin/../lib/gcc/powerpc-unknown-nto-qnx6.5.0/4.6.3\libgcc.a(_df_to_sf.o)
 .debug_abbrev  0x00005873       0xc9 c:/program files/dspace rcphil 2016-a/compiler/qnx650_463/host/win32/x86/usr/bin/../lib/gcc/powerpc-unknown-nto-qnx6.5.0/4.6.3\libgcc.a(_thenan_df.o)
 .debug_abbrev  0x0000593c       0xba c:/program files/dspace rcphil 2016-a/compiler/qnx650_463/host/win32/x86/usr/bin/../lib/gcc/powerpc-unknown-nto-qnx6.5.0/4.6.3\libgcc.a(_df_to_usi.o)
 .debug_abbrev  0x000059f6      0x171 c:/program files/dspace rcphil 2016-a/compiler/qnx650_463/host/win32/x86/usr/bin/../lib/gcc/powerpc-unknown-nto-qnx6.5.0/4.6.3\libgcc.a(_usi_to_df.o)
 .debug_abbrev  0x00005b67       0x14 c:/program files/dspace rcphil 2016-a/compiler/qnx650_463/host/win32/x86/usr/bin/../lib/gcc/powerpc-unknown-nto-qnx6.5.0/4.6.3\libgcc.a(tramp.o)
 .debug_abbrev  0x00005b7b       0x14 c:/program files/dspace rcphil 2016-a/compiler/qnx650_463/host/win32/x86/usr/bin/../lib/gcc/powerpc-unknown-nto-qnx6.5.0/4.6.3\libgcc.a(crtsavfpr.o)
 .debug_abbrev  0x00005b8f       0x14 c:/program files/dspace rcphil 2016-a/compiler/qnx650_463/host/win32/x86/usr/bin/../lib/gcc/powerpc-unknown-nto-qnx6.5.0/4.6.3\libgcc.a(crtresfpr.o)
 .debug_abbrev  0x00005ba3       0x14 c:/program files/dspace rcphil 2016-a/compiler/qnx650_463/host/win32/x86/usr/bin/../lib/gcc/powerpc-unknown-nto-qnx6.5.0/4.6.3\libgcc.a(crtsavgpr.o)
 .debug_abbrev  0x00005bb7       0x14 c:/program files/dspace rcphil 2016-a/compiler/qnx650_463/host/win32/x86/usr/bin/../lib/gcc/powerpc-unknown-nto-qnx6.5.0/4.6.3\libgcc.a(crtresgpr.o)
 .debug_abbrev  0x00005bcb       0x14 c:/program files/dspace rcphil 2016-a/compiler/qnx650_463/host/win32/x86/usr/bin/../lib/gcc/powerpc-unknown-nto-qnx6.5.0/4.6.3\libgcc.a(crtresxfpr.o)
 .debug_abbrev  0x00005bdf       0x14 c:/program files/dspace rcphil 2016-a/compiler/qnx650_463/host/win32/x86/usr/bin/../lib/gcc/powerpc-unknown-nto-qnx6.5.0/4.6.3\libgcc.a(crtresxgpr.o)
 .debug_abbrev  0x00005bf3      0x589 c:/program files/dspace rcphil 2016-a/compiler/qnx650_463/host/win32/x86/usr/bin/../lib/gcc/powerpc-unknown-nto-qnx6.5.0/4.6.3\libgcc.a(unwind-dw2.o)
 .debug_abbrev  0x0000617c      0x48f c:/program files/dspace rcphil 2016-a/compiler/qnx650_463/host/win32/x86/usr/bin/../lib/gcc/powerpc-unknown-nto-qnx6.5.0/4.6.3\libgcc.a(unwind-dw2-fde.o)
 .debug_abbrev  0x0000660b       0x2a c:/program files/dspace rcphil 2016-a/compiler/qnx650_463/host/win32/x86/usr/bin/../lib/gcc/powerpc-unknown-nto-qnx6.5.0/4.6.3\libgcc.a(unwind-sjlj.o)
 .debug_abbrev  0x00006635      0x25e c:/program files/dspace rcphil 2016-a/compiler/qnx650_463/host/win32/x86/usr/bin/../lib/gcc/powerpc-unknown-nto-qnx6.5.0/4.6.3\libgcc.a(unwind-c.o)
 .debug_abbrev  0x00006893      0x252 c:/program files/dspace rcphil 2016-a/compiler/qnx650_463/host/win32/x86/usr/bin/../lib/gcc/powerpc-unknown-nto-qnx6.5.0/4.6.3\libgcc.a(emutls.o)

.debug_line     0x00000000     0x564a
 *(.debug_line)
 .debug_line    0x00000000       0x67 c:/program files/dspace rcphil 2016-a/compiler/qnx650_463/host/win32/x86/usr/bin/../lib/gcc/powerpc-unknown-nto-qnx6.5.0/4.6.3\libgcc.a(_muldi3.o)
 .debug_line    0x00000067       0x64 c:/program files/dspace rcphil 2016-a/compiler/qnx650_463/host/win32/x86/usr/bin/../lib/gcc/powerpc-unknown-nto-qnx6.5.0/4.6.3\libgcc.a(_negdi2.o)
 .debug_line    0x000000cb       0x70 c:/program files/dspace rcphil 2016-a/compiler/qnx650_463/host/win32/x86/usr/bin/../lib/gcc/powerpc-unknown-nto-qnx6.5.0/4.6.3\libgcc.a(_lshrdi3.o)
 .debug_line    0x0000013b       0x70 c:/program files/dspace rcphil 2016-a/compiler/qnx650_463/host/win32/x86/usr/bin/../lib/gcc/powerpc-unknown-nto-qnx6.5.0/4.6.3\libgcc.a(_ashldi3.o)
 .debug_line    0x000001ab       0x70 c:/program files/dspace rcphil 2016-a/compiler/qnx650_463/host/win32/x86/usr/bin/../lib/gcc/powerpc-unknown-nto-qnx6.5.0/4.6.3\libgcc.a(_ashrdi3.o)
 .debug_line    0x0000021b       0x67 c:/program files/dspace rcphil 2016-a/compiler/qnx650_463/host/win32/x86/usr/bin/../lib/gcc/powerpc-unknown-nto-qnx6.5.0/4.6.3\libgcc.a(_cmpdi2.o)
 .debug_line    0x00000282       0x67 c:/program files/dspace rcphil 2016-a/compiler/qnx650_463/host/win32/x86/usr/bin/../lib/gcc/powerpc-unknown-nto-qnx6.5.0/4.6.3\libgcc.a(_ucmpdi2.o)
 .debug_line    0x000002e9       0x52 c:/program files/dspace rcphil 2016-a/compiler/qnx650_463/host/win32/x86/usr/bin/../lib/gcc/powerpc-unknown-nto-qnx6.5.0/4.6.3\libgcc.a(_clear_cache.o)
 .debug_line    0x0000033b       0x52 c:/program files/dspace rcphil 2016-a/compiler/qnx650_463/host/win32/x86/usr/bin/../lib/gcc/powerpc-unknown-nto-qnx6.5.0/4.6.3\libgcc.a(_enable_execute_stack.o)
 .debug_line    0x0000038d       0x1d c:/program files/dspace rcphil 2016-a/compiler/qnx650_463/host/win32/x86/usr/bin/../lib/gcc/powerpc-unknown-nto-qnx6.5.0/4.6.3\libgcc.a(_trampoline.o)
 .debug_line    0x000003aa       0x1d c:/program files/dspace rcphil 2016-a/compiler/qnx650_463/host/win32/x86/usr/bin/../lib/gcc/powerpc-unknown-nto-qnx6.5.0/4.6.3\libgcc.a(__main.o)
 .debug_line    0x000003c7       0x66 c:/program files/dspace rcphil 2016-a/compiler/qnx650_463/host/win32/x86/usr/bin/../lib/gcc/powerpc-unknown-nto-qnx6.5.0/4.6.3\libgcc.a(_absvsi2.o)
 .debug_line    0x0000042d       0x69 c:/program files/dspace rcphil 2016-a/compiler/qnx650_463/host/win32/x86/usr/bin/../lib/gcc/powerpc-unknown-nto-qnx6.5.0/4.6.3\libgcc.a(_absvdi2.o)
 .debug_line    0x00000496       0x66 c:/program files/dspace rcphil 2016-a/compiler/qnx650_463/host/win32/x86/usr/bin/../lib/gcc/powerpc-unknown-nto-qnx6.5.0/4.6.3\libgcc.a(_addvsi3.o)
 .debug_line    0x000004fc       0x69 c:/program files/dspace rcphil 2016-a/compiler/qnx650_463/host/win32/x86/usr/bin/../lib/gcc/powerpc-unknown-nto-qnx6.5.0/4.6.3\libgcc.a(_addvdi3.o)
 .debug_line    0x00000565       0x66 c:/program files/dspace rcphil 2016-a/compiler/qnx650_463/host/win32/x86/usr/bin/../lib/gcc/powerpc-unknown-nto-qnx6.5.0/4.6.3\libgcc.a(_subvsi3.o)
 .debug_line    0x000005cb       0x69 c:/program files/dspace rcphil 2016-a/compiler/qnx650_463/host/win32/x86/usr/bin/../lib/gcc/powerpc-unknown-nto-qnx6.5.0/4.6.3\libgcc.a(_subvdi3.o)
 .debug_line    0x00000634       0x65 c:/program files/dspace rcphil 2016-a/compiler/qnx650_463/host/win32/x86/usr/bin/../lib/gcc/powerpc-unknown-nto-qnx6.5.0/4.6.3\libgcc.a(_mulvsi3.o)
 .debug_line    0x00000699       0xbf c:/program files/dspace rcphil 2016-a/compiler/qnx650_463/host/win32/x86/usr/bin/../lib/gcc/powerpc-unknown-nto-qnx6.5.0/4.6.3\libgcc.a(_mulvdi3.o)
 .debug_line    0x00000758       0x65 c:/program files/dspace rcphil 2016-a/compiler/qnx650_463/host/win32/x86/usr/bin/../lib/gcc/powerpc-unknown-nto-qnx6.5.0/4.6.3\libgcc.a(_negvsi2.o)
 .debug_line    0x000007bd       0x66 c:/program files/dspace rcphil 2016-a/compiler/qnx650_463/host/win32/x86/usr/bin/../lib/gcc/powerpc-unknown-nto-qnx6.5.0/4.6.3\libgcc.a(_negvdi2.o)
 .debug_line    0x00000823       0x1d c:/program files/dspace rcphil 2016-a/compiler/qnx650_463/host/win32/x86/usr/bin/../lib/gcc/powerpc-unknown-nto-qnx6.5.0/4.6.3\libgcc.a(_ctors.o)
 .debug_line    0x00000840       0x64 c:/program files/dspace rcphil 2016-a/compiler/qnx650_463/host/win32/x86/usr/bin/../lib/gcc/powerpc-unknown-nto-qnx6.5.0/4.6.3\libgcc.a(_ffssi2.o)
 .debug_line    0x000008a4       0x71 c:/program files/dspace rcphil 2016-a/compiler/qnx650_463/host/win32/x86/usr/bin/../lib/gcc/powerpc-unknown-nto-qnx6.5.0/4.6.3\libgcc.a(_ffsdi2.o)
 .debug_line    0x00000915       0x7f c:/program files/dspace rcphil 2016-a/compiler/qnx650_463/host/win32/x86/usr/bin/../lib/gcc/powerpc-unknown-nto-qnx6.5.0/4.6.3\libgcc.a(_clz.o)
 .debug_line    0x00000994       0x60 c:/program files/dspace rcphil 2016-a/compiler/qnx650_463/host/win32/x86/usr/bin/../lib/gcc/powerpc-unknown-nto-qnx6.5.0/4.6.3\libgcc.a(_clzsi2.o)
 .debug_line    0x000009f4       0x64 c:/program files/dspace rcphil 2016-a/compiler/qnx650_463/host/win32/x86/usr/bin/../lib/gcc/powerpc-unknown-nto-qnx6.5.0/4.6.3\libgcc.a(_clzdi2.o)
 .debug_line    0x00000a58       0x62 c:/program files/dspace rcphil 2016-a/compiler/qnx650_463/host/win32/x86/usr/bin/../lib/gcc/powerpc-unknown-nto-qnx6.5.0/4.6.3\libgcc.a(_ctzsi2.o)
 .debug_line    0x00000aba       0x66 c:/program files/dspace rcphil 2016-a/compiler/qnx650_463/host/win32/x86/usr/bin/../lib/gcc/powerpc-unknown-nto-qnx6.5.0/4.6.3\libgcc.a(_ctzdi2.o)
 .debug_line    0x00000b20       0x7f c:/program files/dspace rcphil 2016-a/compiler/qnx650_463/host/win32/x86/usr/bin/../lib/gcc/powerpc-unknown-nto-qnx6.5.0/4.6.3\libgcc.a(_popcount_tab.o)
 .debug_line    0x00000b9f       0x65 c:/program files/dspace rcphil 2016-a/compiler/qnx650_463/host/win32/x86/usr/bin/../lib/gcc/powerpc-unknown-nto-qnx6.5.0/4.6.3\libgcc.a(_popcountsi2.o)
 .debug_line    0x00000c04       0x6b c:/program files/dspace rcphil 2016-a/compiler/qnx650_463/host/win32/x86/usr/bin/../lib/gcc/powerpc-unknown-nto-qnx6.5.0/4.6.3\libgcc.a(_popcountdi2.o)
 .debug_line    0x00000c6f       0x69 c:/program files/dspace rcphil 2016-a/compiler/qnx650_463/host/win32/x86/usr/bin/../lib/gcc/powerpc-unknown-nto-qnx6.5.0/4.6.3\libgcc.a(_paritysi2.o)
 .debug_line    0x00000cd8       0x6b c:/program files/dspace rcphil 2016-a/compiler/qnx650_463/host/win32/x86/usr/bin/../lib/gcc/powerpc-unknown-nto-qnx6.5.0/4.6.3\libgcc.a(_paritydi2.o)
 .debug_line    0x00000d43       0x6d c:/program files/dspace rcphil 2016-a/compiler/qnx650_463/host/win32/x86/usr/bin/../lib/gcc/powerpc-unknown-nto-qnx6.5.0/4.6.3\libgcc.a(_powisf2.o)
 .debug_line    0x00000db0       0x6d c:/program files/dspace rcphil 2016-a/compiler/qnx650_463/host/win32/x86/usr/bin/../lib/gcc/powerpc-unknown-nto-qnx6.5.0/4.6.3\libgcc.a(_powidf2.o)
 .debug_line    0x00000e1d       0x1d c:/program files/dspace rcphil 2016-a/compiler/qnx650_463/host/win32/x86/usr/bin/../lib/gcc/powerpc-unknown-nto-qnx6.5.0/4.6.3\libgcc.a(_powixf2.o)
 .debug_line    0x00000e3a       0x1d c:/program files/dspace rcphil 2016-a/compiler/qnx650_463/host/win32/x86/usr/bin/../lib/gcc/powerpc-unknown-nto-qnx6.5.0/4.6.3\libgcc.a(_powitf2.o)
 .debug_line    0x00000e57       0xc1 c:/program files/dspace rcphil 2016-a/compiler/qnx650_463/host/win32/x86/usr/bin/../lib/gcc/powerpc-unknown-nto-qnx6.5.0/4.6.3\libgcc.a(_mulsc3.o)
 .debug_line    0x00000f18       0xc1 c:/program files/dspace rcphil 2016-a/compiler/qnx650_463/host/win32/x86/usr/bin/../lib/gcc/powerpc-unknown-nto-qnx6.5.0/4.6.3\libgcc.a(_muldc3.o)
 .debug_line    0x00000fd9       0x1d c:/program files/dspace rcphil 2016-a/compiler/qnx650_463/host/win32/x86/usr/bin/../lib/gcc/powerpc-unknown-nto-qnx6.5.0/4.6.3\libgcc.a(_mulxc3.o)
 .debug_line    0x00000ff6       0x1d c:/program files/dspace rcphil 2016-a/compiler/qnx650_463/host/win32/x86/usr/bin/../lib/gcc/powerpc-unknown-nto-qnx6.5.0/4.6.3\libgcc.a(_multc3.o)
 .debug_line    0x00001013       0xb2 c:/program files/dspace rcphil 2016-a/compiler/qnx650_463/host/win32/x86/usr/bin/../lib/gcc/powerpc-unknown-nto-qnx6.5.0/4.6.3\libgcc.a(_divsc3.o)
 .debug_line    0x000010c5       0xb0 c:/program files/dspace rcphil 2016-a/compiler/qnx650_463/host/win32/x86/usr/bin/../lib/gcc/powerpc-unknown-nto-qnx6.5.0/4.6.3\libgcc.a(_divdc3.o)
 .debug_line    0x00001175       0x1d c:/program files/dspace rcphil 2016-a/compiler/qnx650_463/host/win32/x86/usr/bin/../lib/gcc/powerpc-unknown-nto-qnx6.5.0/4.6.3\libgcc.a(_divxc3.o)
 .debug_line    0x00001192       0x1d c:/program files/dspace rcphil 2016-a/compiler/qnx650_463/host/win32/x86/usr/bin/../lib/gcc/powerpc-unknown-nto-qnx6.5.0/4.6.3\libgcc.a(_divtc3.o)
 .debug_line    0x000011af       0x5f c:/program files/dspace rcphil 2016-a/compiler/qnx650_463/host/win32/x86/usr/bin/../lib/gcc/powerpc-unknown-nto-qnx6.5.0/4.6.3\libgcc.a(_bswapsi2.o)
 .debug_line    0x0000120e       0x62 c:/program files/dspace rcphil 2016-a/compiler/qnx650_463/host/win32/x86/usr/bin/../lib/gcc/powerpc-unknown-nto-qnx6.5.0/4.6.3\libgcc.a(_bswapdi2.o)
 .debug_line    0x00001270       0x67 c:/program files/dspace rcphil 2016-a/compiler/qnx650_463/host/win32/x86/usr/bin/../lib/gcc/powerpc-unknown-nto-qnx6.5.0/4.6.3\libgcc.a(_fixunssfsi.o)
 .debug_line    0x000012d7       0x67 c:/program files/dspace rcphil 2016-a/compiler/qnx650_463/host/win32/x86/usr/bin/../lib/gcc/powerpc-unknown-nto-qnx6.5.0/4.6.3\libgcc.a(_fixunsdfsi.o)
 .debug_line    0x0000133e       0x1d c:/program files/dspace rcphil 2016-a/compiler/qnx650_463/host/win32/x86/usr/bin/../lib/gcc/powerpc-unknown-nto-qnx6.5.0/4.6.3\libgcc.a(_fixunsxfsi.o)
 .debug_line    0x0000135b       0x6b c:/program files/dspace rcphil 2016-a/compiler/qnx650_463/host/win32/x86/usr/bin/../lib/gcc/powerpc-unknown-nto-qnx6.5.0/4.6.3\libgcc.a(_fixsfdi.o)
 .debug_line    0x000013c6       0x6b c:/program files/dspace rcphil 2016-a/compiler/qnx650_463/host/win32/x86/usr/bin/../lib/gcc/powerpc-unknown-nto-qnx6.5.0/4.6.3\libgcc.a(_fixdfdi.o)
 .debug_line    0x00001431       0x1d c:/program files/dspace rcphil 2016-a/compiler/qnx650_463/host/win32/x86/usr/bin/../lib/gcc/powerpc-unknown-nto-qnx6.5.0/4.6.3\libgcc.a(_fixxfdi.o)
 .debug_line    0x0000144e       0x1d c:/program files/dspace rcphil 2016-a/compiler/qnx650_463/host/win32/x86/usr/bin/../lib/gcc/powerpc-unknown-nto-qnx6.5.0/4.6.3\libgcc.a(_fixtfdi.o)
 .debug_line    0x0000146b       0x8e c:/program files/dspace rcphil 2016-a/compiler/qnx650_463/host/win32/x86/usr/bin/../lib/gcc/powerpc-unknown-nto-qnx6.5.0/4.6.3\libgcc.a(_fixunssfdi.o)
 .debug_line    0x000014f9       0x7e c:/program files/dspace rcphil 2016-a/compiler/qnx650_463/host/win32/x86/usr/bin/../lib/gcc/powerpc-unknown-nto-qnx6.5.0/4.6.3\libgcc.a(_fixunsdfdi.o)
 .debug_line    0x00001577       0x1d c:/program files/dspace rcphil 2016-a/compiler/qnx650_463/host/win32/x86/usr/bin/../lib/gcc/powerpc-unknown-nto-qnx6.5.0/4.6.3\libgcc.a(_fixunsxfdi.o)
 .debug_line    0x00001594       0x1d c:/program files/dspace rcphil 2016-a/compiler/qnx650_463/host/win32/x86/usr/bin/../lib/gcc/powerpc-unknown-nto-qnx6.5.0/4.6.3\libgcc.a(_fixunstfdi.o)
 .debug_line    0x000015b1       0x80 c:/program files/dspace rcphil 2016-a/compiler/qnx650_463/host/win32/x86/usr/bin/../lib/gcc/powerpc-unknown-nto-qnx6.5.0/4.6.3\libgcc.a(_floatdisf.o)
 .debug_line    0x00001631       0x71 c:/program files/dspace rcphil 2016-a/compiler/qnx650_463/host/win32/x86/usr/bin/../lib/gcc/powerpc-unknown-nto-qnx6.5.0/4.6.3\libgcc.a(_floatdidf.o)
 .debug_line    0x000016a2       0x1d c:/program files/dspace rcphil 2016-a/compiler/qnx650_463/host/win32/x86/usr/bin/../lib/gcc/powerpc-unknown-nto-qnx6.5.0/4.6.3\libgcc.a(_floatdixf.o)
 .debug_line    0x000016bf       0x1d c:/program files/dspace rcphil 2016-a/compiler/qnx650_463/host/win32/x86/usr/bin/../lib/gcc/powerpc-unknown-nto-qnx6.5.0/4.6.3\libgcc.a(_floatditf.o)
 .debug_line    0x000016dc       0x7a c:/program files/dspace rcphil 2016-a/compiler/qnx650_463/host/win32/x86/usr/bin/../lib/gcc/powerpc-unknown-nto-qnx6.5.0/4.6.3\libgcc.a(_floatundisf.o)
 .debug_line    0x00001756       0x71 c:/program files/dspace rcphil 2016-a/compiler/qnx650_463/host/win32/x86/usr/bin/../lib/gcc/powerpc-unknown-nto-qnx6.5.0/4.6.3\libgcc.a(_floatundidf.o)
 .debug_line    0x000017c7       0x1d c:/program files/dspace rcphil 2016-a/compiler/qnx650_463/host/win32/x86/usr/bin/../lib/gcc/powerpc-unknown-nto-qnx6.5.0/4.6.3\libgcc.a(_floatundixf.o)
 .debug_line    0x000017e4       0x1d c:/program files/dspace rcphil 2016-a/compiler/qnx650_463/host/win32/x86/usr/bin/../lib/gcc/powerpc-unknown-nto-qnx6.5.0/4.6.3\libgcc.a(_floatunditf.o)
 .debug_line    0x00001801       0xc1 c:/program files/dspace rcphil 2016-a/compiler/qnx650_463/host/win32/x86/usr/bin/../lib/gcc/powerpc-unknown-nto-qnx6.5.0/4.6.3\libgcc.a(_eprintf.o)
 .debug_line    0x000018c2       0xc9 c:/program files/dspace rcphil 2016-a/compiler/qnx650_463/host/win32/x86/usr/bin/../lib/gcc/powerpc-unknown-nto-qnx6.5.0/4.6.3\libgcc.a(__gcc_bcmp.o)
 .debug_line    0x0000198b       0xdb c:/program files/dspace rcphil 2016-a/compiler/qnx650_463/host/win32/x86/usr/bin/../lib/gcc/powerpc-unknown-nto-qnx6.5.0/4.6.3\libgcc.a(_divdi3.o)
 .debug_line    0x00001a66       0xe2 c:/program files/dspace rcphil 2016-a/compiler/qnx650_463/host/win32/x86/usr/bin/../lib/gcc/powerpc-unknown-nto-qnx6.5.0/4.6.3\libgcc.a(_moddi3.o)
 .debug_line    0x00001b48       0xd7 c:/program files/dspace rcphil 2016-a/compiler/qnx650_463/host/win32/x86/usr/bin/../lib/gcc/powerpc-unknown-nto-qnx6.5.0/4.6.3\libgcc.a(_udivdi3.o)
 .debug_line    0x00001c1f       0xe1 c:/program files/dspace rcphil 2016-a/compiler/qnx650_463/host/win32/x86/usr/bin/../lib/gcc/powerpc-unknown-nto-qnx6.5.0/4.6.3\libgcc.a(_umoddi3.o)
 .debug_line    0x00001d00       0x5f c:/program files/dspace rcphil 2016-a/compiler/qnx650_463/host/win32/x86/usr/bin/../lib/gcc/powerpc-unknown-nto-qnx6.5.0/4.6.3\libgcc.a(_udiv_w_sdiv.o)
 .debug_line    0x00001d5f       0xf3 c:/program files/dspace rcphil 2016-a/compiler/qnx650_463/host/win32/x86/usr/bin/../lib/gcc/powerpc-unknown-nto-qnx6.5.0/4.6.3\libgcc.a(_udivmoddi4.o)
 .debug_line    0x00001e52       0xb7 c:/program files/dspace rcphil 2016-a/compiler/qnx650_463/host/win32/x86/usr/bin/../lib/gcc/powerpc-unknown-nto-qnx6.5.0/4.6.3\libgcc.a(_pack_sf.o)
 .debug_line    0x00001f09       0x9e c:/program files/dspace rcphil 2016-a/compiler/qnx650_463/host/win32/x86/usr/bin/../lib/gcc/powerpc-unknown-nto-qnx6.5.0/4.6.3\libgcc.a(_unpack_sf.o)
 .debug_line    0x00001fa7      0x112 c:/program files/dspace rcphil 2016-a/compiler/qnx650_463/host/win32/x86/usr/bin/../lib/gcc/powerpc-unknown-nto-qnx6.5.0/4.6.3\libgcc.a(_addsub_sf.o)
 .debug_line    0x000020b9       0xfb c:/program files/dspace rcphil 2016-a/compiler/qnx650_463/host/win32/x86/usr/bin/../lib/gcc/powerpc-unknown-nto-qnx6.5.0/4.6.3\libgcc.a(_mul_sf.o)
 .debug_line    0x000021b4       0xda c:/program files/dspace rcphil 2016-a/compiler/qnx650_463/host/win32/x86/usr/bin/../lib/gcc/powerpc-unknown-nto-qnx6.5.0/4.6.3\libgcc.a(_div_sf.o)
 .debug_line    0x0000228e       0xa8 c:/program files/dspace rcphil 2016-a/compiler/qnx650_463/host/win32/x86/usr/bin/../lib/gcc/powerpc-unknown-nto-qnx6.5.0/4.6.3\libgcc.a(_fpcmp_parts_sf.o)
 .debug_line    0x00002336       0x79 c:/program files/dspace rcphil 2016-a/compiler/qnx650_463/host/win32/x86/usr/bin/../lib/gcc/powerpc-unknown-nto-qnx6.5.0/4.6.3\libgcc.a(_compare_sf.o)
 .debug_line    0x000023af       0x7c c:/program files/dspace rcphil 2016-a/compiler/qnx650_463/host/win32/x86/usr/bin/../lib/gcc/powerpc-unknown-nto-qnx6.5.0/4.6.3\libgcc.a(_eq_sf.o)
 .debug_line    0x0000242b       0x7c c:/program files/dspace rcphil 2016-a/compiler/qnx650_463/host/win32/x86/usr/bin/../lib/gcc/powerpc-unknown-nto-qnx6.5.0/4.6.3\libgcc.a(_ne_sf.o)
 .debug_line    0x000024a7       0x7c c:/program files/dspace rcphil 2016-a/compiler/qnx650_463/host/win32/x86/usr/bin/../lib/gcc/powerpc-unknown-nto-qnx6.5.0/4.6.3\libgcc.a(_gt_sf.o)
 .debug_line    0x00002523       0x7c c:/program files/dspace rcphil 2016-a/compiler/qnx650_463/host/win32/x86/usr/bin/../lib/gcc/powerpc-unknown-nto-qnx6.5.0/4.6.3\libgcc.a(_ge_sf.o)
 .debug_line    0x0000259f       0x7c c:/program files/dspace rcphil 2016-a/compiler/qnx650_463/host/win32/x86/usr/bin/../lib/gcc/powerpc-unknown-nto-qnx6.5.0/4.6.3\libgcc.a(_lt_sf.o)
 .debug_line    0x0000261b       0x7c c:/program files/dspace rcphil 2016-a/compiler/qnx650_463/host/win32/x86/usr/bin/../lib/gcc/powerpc-unknown-nto-qnx6.5.0/4.6.3\libgcc.a(_le_sf.o)
 .debug_line    0x00002697       0x79 c:/program files/dspace rcphil 2016-a/compiler/qnx650_463/host/win32/x86/usr/bin/../lib/gcc/powerpc-unknown-nto-qnx6.5.0/4.6.3\libgcc.a(_unord_sf.o)
 .debug_line    0x00002710       0x93 c:/program files/dspace rcphil 2016-a/compiler/qnx650_463/host/win32/x86/usr/bin/../lib/gcc/powerpc-unknown-nto-qnx6.5.0/4.6.3\libgcc.a(_si_to_sf.o)
 .debug_line    0x000027a3       0x88 c:/program files/dspace rcphil 2016-a/compiler/qnx650_463/host/win32/x86/usr/bin/../lib/gcc/powerpc-unknown-nto-qnx6.5.0/4.6.3\libgcc.a(_sf_to_si.o)
 .debug_line    0x0000282b       0x7d c:/program files/dspace rcphil 2016-a/compiler/qnx650_463/host/win32/x86/usr/bin/../lib/gcc/powerpc-unknown-nto-qnx6.5.0/4.6.3\libgcc.a(_negate_sf.o)
 .debug_line    0x000028a8       0x79 c:/program files/dspace rcphil 2016-a/compiler/qnx650_463/host/win32/x86/usr/bin/../lib/gcc/powerpc-unknown-nto-qnx6.5.0/4.6.3\libgcc.a(_make_sf.o)
 .debug_line    0x00002921       0x76 c:/program files/dspace rcphil 2016-a/compiler/qnx650_463/host/win32/x86/usr/bin/../lib/gcc/powerpc-unknown-nto-qnx6.5.0/4.6.3\libgcc.a(_sf_to_df.o)
 .debug_line    0x00002997       0x90 c:/program files/dspace rcphil 2016-a/compiler/qnx650_463/host/win32/x86/usr/bin/../lib/gcc/powerpc-unknown-nto-qnx6.5.0/4.6.3\libgcc.a(_thenan_sf.o)
 .debug_line    0x00002a27       0x5f c:/program files/dspace rcphil 2016-a/compiler/qnx650_463/host/win32/x86/usr/bin/../lib/gcc/powerpc-unknown-nto-qnx6.5.0/4.6.3\libgcc.a(_sf_to_usi.o)
 .debug_line    0x00002a86       0xa7 c:/program files/dspace rcphil 2016-a/compiler/qnx650_463/host/win32/x86/usr/bin/../lib/gcc/powerpc-unknown-nto-qnx6.5.0/4.6.3\libgcc.a(_usi_to_sf.o)
 .debug_line    0x00002b2d       0xdb c:/program files/dspace rcphil 2016-a/compiler/qnx650_463/host/win32/x86/usr/bin/../lib/gcc/powerpc-unknown-nto-qnx6.5.0/4.6.3\libgcc.a(_pack_df.o)
 .debug_line    0x00002c08       0xa5 c:/program files/dspace rcphil 2016-a/compiler/qnx650_463/host/win32/x86/usr/bin/../lib/gcc/powerpc-unknown-nto-qnx6.5.0/4.6.3\libgcc.a(_unpack_df.o)
 .debug_line    0x00002cad      0x129 c:/program files/dspace rcphil 2016-a/compiler/qnx650_463/host/win32/x86/usr/bin/../lib/gcc/powerpc-unknown-nto-qnx6.5.0/4.6.3\libgcc.a(_addsub_df.o)
 .debug_line    0x00002dd6      0x13a c:/program files/dspace rcphil 2016-a/compiler/qnx650_463/host/win32/x86/usr/bin/../lib/gcc/powerpc-unknown-nto-qnx6.5.0/4.6.3\libgcc.a(_mul_df.o)
 .debug_line    0x00002f10       0xff c:/program files/dspace rcphil 2016-a/compiler/qnx650_463/host/win32/x86/usr/bin/../lib/gcc/powerpc-unknown-nto-qnx6.5.0/4.6.3\libgcc.a(_div_df.o)
 .debug_line    0x0000300f       0xa7 c:/program files/dspace rcphil 2016-a/compiler/qnx650_463/host/win32/x86/usr/bin/../lib/gcc/powerpc-unknown-nto-qnx6.5.0/4.6.3\libgcc.a(_fpcmp_parts_df.o)
 .debug_line    0x000030b6       0x79 c:/program files/dspace rcphil 2016-a/compiler/qnx650_463/host/win32/x86/usr/bin/../lib/gcc/powerpc-unknown-nto-qnx6.5.0/4.6.3\libgcc.a(_compare_df.o)
 .debug_line    0x0000312f       0x7c c:/program files/dspace rcphil 2016-a/compiler/qnx650_463/host/win32/x86/usr/bin/../lib/gcc/powerpc-unknown-nto-qnx6.5.0/4.6.3\libgcc.a(_eq_df.o)
 .debug_line    0x000031ab       0x7c c:/program files/dspace rcphil 2016-a/compiler/qnx650_463/host/win32/x86/usr/bin/../lib/gcc/powerpc-unknown-nto-qnx6.5.0/4.6.3\libgcc.a(_ne_df.o)
 .debug_line    0x00003227       0x7c c:/program files/dspace rcphil 2016-a/compiler/qnx650_463/host/win32/x86/usr/bin/../lib/gcc/powerpc-unknown-nto-qnx6.5.0/4.6.3\libgcc.a(_gt_df.o)
 .debug_line    0x000032a3       0x7c c:/program files/dspace rcphil 2016-a/compiler/qnx650_463/host/win32/x86/usr/bin/../lib/gcc/powerpc-unknown-nto-qnx6.5.0/4.6.3\libgcc.a(_ge_df.o)
 .debug_line    0x0000331f       0x7c c:/program files/dspace rcphil 2016-a/compiler/qnx650_463/host/win32/x86/usr/bin/../lib/gcc/powerpc-unknown-nto-qnx6.5.0/4.6.3\libgcc.a(_lt_df.o)
 .debug_line    0x0000339b       0x7c c:/program files/dspace rcphil 2016-a/compiler/qnx650_463/host/win32/x86/usr/bin/../lib/gcc/powerpc-unknown-nto-qnx6.5.0/4.6.3\libgcc.a(_le_df.o)
 .debug_line    0x00003417       0x79 c:/program files/dspace rcphil 2016-a/compiler/qnx650_463/host/win32/x86/usr/bin/../lib/gcc/powerpc-unknown-nto-qnx6.5.0/4.6.3\libgcc.a(_unord_df.o)
 .debug_line    0x00003490       0x98 c:/program files/dspace rcphil 2016-a/compiler/qnx650_463/host/win32/x86/usr/bin/../lib/gcc/powerpc-unknown-nto-qnx6.5.0/4.6.3\libgcc.a(_si_to_df.o)
 .debug_line    0x00003528       0x84 c:/program files/dspace rcphil 2016-a/compiler/qnx650_463/host/win32/x86/usr/bin/../lib/gcc/powerpc-unknown-nto-qnx6.5.0/4.6.3\libgcc.a(_df_to_si.o)
 .debug_line    0x000035ac       0x7d c:/program files/dspace rcphil 2016-a/compiler/qnx650_463/host/win32/x86/usr/bin/../lib/gcc/powerpc-unknown-nto-qnx6.5.0/4.6.3\libgcc.a(_negate_df.o)
 .debug_line    0x00003629       0x79 c:/program files/dspace rcphil 2016-a/compiler/qnx650_463/host/win32/x86/usr/bin/../lib/gcc/powerpc-unknown-nto-qnx6.5.0/4.6.3\libgcc.a(_make_df.o)
 .debug_line    0x000036a2       0x7c c:/program files/dspace rcphil 2016-a/compiler/qnx650_463/host/win32/x86/usr/bin/../lib/gcc/powerpc-unknown-nto-qnx6.5.0/4.6.3\libgcc.a(_df_to_sf.o)
 .debug_line    0x0000371e       0x90 c:/program files/dspace rcphil 2016-a/compiler/qnx650_463/host/win32/x86/usr/bin/../lib/gcc/powerpc-unknown-nto-qnx6.5.0/4.6.3\libgcc.a(_thenan_df.o)
 .debug_line    0x000037ae       0x5f c:/program files/dspace rcphil 2016-a/compiler/qnx650_463/host/win32/x86/usr/bin/../lib/gcc/powerpc-unknown-nto-qnx6.5.0/4.6.3\libgcc.a(_df_to_usi.o)
 .debug_line    0x0000380d       0xa8 c:/program files/dspace rcphil 2016-a/compiler/qnx650_463/host/win32/x86/usr/bin/../lib/gcc/powerpc-unknown-nto-qnx6.5.0/4.6.3\libgcc.a(_usi_to_df.o)
 .debug_line    0x000038b5       0x67 c:/program files/dspace rcphil 2016-a/compiler/qnx650_463/host/win32/x86/usr/bin/../lib/gcc/powerpc-unknown-nto-qnx6.5.0/4.6.3\libgcc.a(tramp.o)
 .debug_line    0x0000391c       0x59 c:/program files/dspace rcphil 2016-a/compiler/qnx650_463/host/win32/x86/usr/bin/../lib/gcc/powerpc-unknown-nto-qnx6.5.0/4.6.3\libgcc.a(crtsavfpr.o)
 .debug_line    0x00003975       0x59 c:/program files/dspace rcphil 2016-a/compiler/qnx650_463/host/win32/x86/usr/bin/../lib/gcc/powerpc-unknown-nto-qnx6.5.0/4.6.3\libgcc.a(crtresfpr.o)
 .debug_line    0x000039ce       0x59 c:/program files/dspace rcphil 2016-a/compiler/qnx650_463/host/win32/x86/usr/bin/../lib/gcc/powerpc-unknown-nto-qnx6.5.0/4.6.3\libgcc.a(crtsavgpr.o)
 .debug_line    0x00003a27       0x59 c:/program files/dspace rcphil 2016-a/compiler/qnx650_463/host/win32/x86/usr/bin/../lib/gcc/powerpc-unknown-nto-qnx6.5.0/4.6.3\libgcc.a(crtresgpr.o)
 .debug_line    0x00003a80       0x5d c:/program files/dspace rcphil 2016-a/compiler/qnx650_463/host/win32/x86/usr/bin/../lib/gcc/powerpc-unknown-nto-qnx6.5.0/4.6.3\libgcc.a(crtresxfpr.o)
 .debug_line    0x00003add       0x5d c:/program files/dspace rcphil 2016-a/compiler/qnx650_463/host/win32/x86/usr/bin/../lib/gcc/powerpc-unknown-nto-qnx6.5.0/4.6.3\libgcc.a(crtresxgpr.o)
 .debug_line    0x00003b3a      0xf7c c:/program files/dspace rcphil 2016-a/compiler/qnx650_463/host/win32/x86/usr/bin/../lib/gcc/powerpc-unknown-nto-qnx6.5.0/4.6.3\libgcc.a(unwind-dw2.o)
 .debug_line    0x00004ab6      0x774 c:/program files/dspace rcphil 2016-a/compiler/qnx650_463/host/win32/x86/usr/bin/../lib/gcc/powerpc-unknown-nto-qnx6.5.0/4.6.3\libgcc.a(unwind-dw2-fde.o)
 .debug_line    0x0000522a       0x1d c:/program files/dspace rcphil 2016-a/compiler/qnx650_463/host/win32/x86/usr/bin/../lib/gcc/powerpc-unknown-nto-qnx6.5.0/4.6.3\libgcc.a(unwind-sjlj.o)
 .debug_line    0x00005247      0x267 c:/program files/dspace rcphil 2016-a/compiler/qnx650_463/host/win32/x86/usr/bin/../lib/gcc/powerpc-unknown-nto-qnx6.5.0/4.6.3\libgcc.a(unwind-c.o)
 .debug_line    0x000054ae      0x19c c:/program files/dspace rcphil 2016-a/compiler/qnx650_463/host/win32/x86/usr/bin/../lib/gcc/powerpc-unknown-nto-qnx6.5.0/4.6.3\libgcc.a(emutls.o)

.debug_frame    0x00000000     0x1cf4
 *(.debug_frame)
 .debug_frame   0x00000000       0x20 c:/program files/dspace rcphil 2016-a/compiler/qnx650_463/host/win32/x86/usr/bin/../lib/gcc/powerpc-unknown-nto-qnx6.5.0/4.6.3\libgcc.a(_muldi3.o)
 .debug_frame   0x00000020       0x20 c:/program files/dspace rcphil 2016-a/compiler/qnx650_463/host/win32/x86/usr/bin/../lib/gcc/powerpc-unknown-nto-qnx6.5.0/4.6.3\libgcc.a(_negdi2.o)
 .debug_frame   0x00000040       0x20 c:/program files/dspace rcphil 2016-a/compiler/qnx650_463/host/win32/x86/usr/bin/../lib/gcc/powerpc-unknown-nto-qnx6.5.0/4.6.3\libgcc.a(_lshrdi3.o)
 .debug_frame   0x00000060       0x20 c:/program files/dspace rcphil 2016-a/compiler/qnx650_463/host/win32/x86/usr/bin/../lib/gcc/powerpc-unknown-nto-qnx6.5.0/4.6.3\libgcc.a(_ashldi3.o)
 .debug_frame   0x00000080       0x20 c:/program files/dspace rcphil 2016-a/compiler/qnx650_463/host/win32/x86/usr/bin/../lib/gcc/powerpc-unknown-nto-qnx6.5.0/4.6.3\libgcc.a(_ashrdi3.o)
 .debug_frame   0x000000a0       0x20 c:/program files/dspace rcphil 2016-a/compiler/qnx650_463/host/win32/x86/usr/bin/../lib/gcc/powerpc-unknown-nto-qnx6.5.0/4.6.3\libgcc.a(_cmpdi2.o)
 .debug_frame   0x000000c0       0x20 c:/program files/dspace rcphil 2016-a/compiler/qnx650_463/host/win32/x86/usr/bin/../lib/gcc/powerpc-unknown-nto-qnx6.5.0/4.6.3\libgcc.a(_ucmpdi2.o)
 .debug_frame   0x000000e0       0x20 c:/program files/dspace rcphil 2016-a/compiler/qnx650_463/host/win32/x86/usr/bin/../lib/gcc/powerpc-unknown-nto-qnx6.5.0/4.6.3\libgcc.a(_clear_cache.o)
 .debug_frame   0x00000100       0x20 c:/program files/dspace rcphil 2016-a/compiler/qnx650_463/host/win32/x86/usr/bin/../lib/gcc/powerpc-unknown-nto-qnx6.5.0/4.6.3\libgcc.a(_enable_execute_stack.o)
 .debug_frame   0x00000120       0x30 c:/program files/dspace rcphil 2016-a/compiler/qnx650_463/host/win32/x86/usr/bin/../lib/gcc/powerpc-unknown-nto-qnx6.5.0/4.6.3\libgcc.a(_absvsi2.o)
 .debug_frame   0x00000150       0x30 c:/program files/dspace rcphil 2016-a/compiler/qnx650_463/host/win32/x86/usr/bin/../lib/gcc/powerpc-unknown-nto-qnx6.5.0/4.6.3\libgcc.a(_absvdi2.o)
 .debug_frame   0x00000180       0x30 c:/program files/dspace rcphil 2016-a/compiler/qnx650_463/host/win32/x86/usr/bin/../lib/gcc/powerpc-unknown-nto-qnx6.5.0/4.6.3\libgcc.a(_addvsi3.o)
 .debug_frame   0x000001b0       0x30 c:/program files/dspace rcphil 2016-a/compiler/qnx650_463/host/win32/x86/usr/bin/../lib/gcc/powerpc-unknown-nto-qnx6.5.0/4.6.3\libgcc.a(_addvdi3.o)
 .debug_frame   0x000001e0       0x30 c:/program files/dspace rcphil 2016-a/compiler/qnx650_463/host/win32/x86/usr/bin/../lib/gcc/powerpc-unknown-nto-qnx6.5.0/4.6.3\libgcc.a(_subvsi3.o)
 .debug_frame   0x00000210       0x30 c:/program files/dspace rcphil 2016-a/compiler/qnx650_463/host/win32/x86/usr/bin/../lib/gcc/powerpc-unknown-nto-qnx6.5.0/4.6.3\libgcc.a(_subvdi3.o)
 .debug_frame   0x00000240       0x30 c:/program files/dspace rcphil 2016-a/compiler/qnx650_463/host/win32/x86/usr/bin/../lib/gcc/powerpc-unknown-nto-qnx6.5.0/4.6.3\libgcc.a(_mulvsi3.o)
 .debug_frame   0x00000270       0x30 c:/program files/dspace rcphil 2016-a/compiler/qnx650_463/host/win32/x86/usr/bin/../lib/gcc/powerpc-unknown-nto-qnx6.5.0/4.6.3\libgcc.a(_mulvdi3.o)
 .debug_frame   0x000002a0       0x30 c:/program files/dspace rcphil 2016-a/compiler/qnx650_463/host/win32/x86/usr/bin/../lib/gcc/powerpc-unknown-nto-qnx6.5.0/4.6.3\libgcc.a(_negvsi2.o)
 .debug_frame   0x000002d0       0x30 c:/program files/dspace rcphil 2016-a/compiler/qnx650_463/host/win32/x86/usr/bin/../lib/gcc/powerpc-unknown-nto-qnx6.5.0/4.6.3\libgcc.a(_negvdi2.o)
 .debug_frame   0x00000300       0x20 c:/program files/dspace rcphil 2016-a/compiler/qnx650_463/host/win32/x86/usr/bin/../lib/gcc/powerpc-unknown-nto-qnx6.5.0/4.6.3\libgcc.a(_ffssi2.o)
 .debug_frame   0x00000320       0x20 c:/program files/dspace rcphil 2016-a/compiler/qnx650_463/host/win32/x86/usr/bin/../lib/gcc/powerpc-unknown-nto-qnx6.5.0/4.6.3\libgcc.a(_ffsdi2.o)
 .debug_frame   0x00000340       0x20 c:/program files/dspace rcphil 2016-a/compiler/qnx650_463/host/win32/x86/usr/bin/../lib/gcc/powerpc-unknown-nto-qnx6.5.0/4.6.3\libgcc.a(_clzsi2.o)
 .debug_frame   0x00000360       0x20 c:/program files/dspace rcphil 2016-a/compiler/qnx650_463/host/win32/x86/usr/bin/../lib/gcc/powerpc-unknown-nto-qnx6.5.0/4.6.3\libgcc.a(_clzdi2.o)
 .debug_frame   0x00000380       0x20 c:/program files/dspace rcphil 2016-a/compiler/qnx650_463/host/win32/x86/usr/bin/../lib/gcc/powerpc-unknown-nto-qnx6.5.0/4.6.3\libgcc.a(_ctzsi2.o)
 .debug_frame   0x000003a0       0x20 c:/program files/dspace rcphil 2016-a/compiler/qnx650_463/host/win32/x86/usr/bin/../lib/gcc/powerpc-unknown-nto-qnx6.5.0/4.6.3\libgcc.a(_ctzdi2.o)
 .debug_frame   0x000003c0       0x20 c:/program files/dspace rcphil 2016-a/compiler/qnx650_463/host/win32/x86/usr/bin/../lib/gcc/powerpc-unknown-nto-qnx6.5.0/4.6.3\libgcc.a(_popcountsi2.o)
 .debug_frame   0x000003e0       0x20 c:/program files/dspace rcphil 2016-a/compiler/qnx650_463/host/win32/x86/usr/bin/../lib/gcc/powerpc-unknown-nto-qnx6.5.0/4.6.3\libgcc.a(_popcountdi2.o)
 .debug_frame   0x00000400       0x20 c:/program files/dspace rcphil 2016-a/compiler/qnx650_463/host/win32/x86/usr/bin/../lib/gcc/powerpc-unknown-nto-qnx6.5.0/4.6.3\libgcc.a(_paritysi2.o)
 .debug_frame   0x00000420       0x20 c:/program files/dspace rcphil 2016-a/compiler/qnx650_463/host/win32/x86/usr/bin/../lib/gcc/powerpc-unknown-nto-qnx6.5.0/4.6.3\libgcc.a(_paritydi2.o)
 .debug_frame   0x00000440       0x20 c:/program files/dspace rcphil 2016-a/compiler/qnx650_463/host/win32/x86/usr/bin/../lib/gcc/powerpc-unknown-nto-qnx6.5.0/4.6.3\libgcc.a(_powisf2.o)
 .debug_frame   0x00000460       0x20 c:/program files/dspace rcphil 2016-a/compiler/qnx650_463/host/win32/x86/usr/bin/../lib/gcc/powerpc-unknown-nto-qnx6.5.0/4.6.3\libgcc.a(_powidf2.o)
 .debug_frame   0x00000480       0x2c c:/program files/dspace rcphil 2016-a/compiler/qnx650_463/host/win32/x86/usr/bin/../lib/gcc/powerpc-unknown-nto-qnx6.5.0/4.6.3\libgcc.a(_mulsc3.o)
 .debug_frame   0x000004ac       0x2c c:/program files/dspace rcphil 2016-a/compiler/qnx650_463/host/win32/x86/usr/bin/../lib/gcc/powerpc-unknown-nto-qnx6.5.0/4.6.3\libgcc.a(_muldc3.o)
 .debug_frame   0x000004d8       0x2c c:/program files/dspace rcphil 2016-a/compiler/qnx650_463/host/win32/x86/usr/bin/../lib/gcc/powerpc-unknown-nto-qnx6.5.0/4.6.3\libgcc.a(_divsc3.o)
 .debug_frame   0x00000504       0x2c c:/program files/dspace rcphil 2016-a/compiler/qnx650_463/host/win32/x86/usr/bin/../lib/gcc/powerpc-unknown-nto-qnx6.5.0/4.6.3\libgcc.a(_divdc3.o)
 .debug_frame   0x00000530       0x20 c:/program files/dspace rcphil 2016-a/compiler/qnx650_463/host/win32/x86/usr/bin/../lib/gcc/powerpc-unknown-nto-qnx6.5.0/4.6.3\libgcc.a(_bswapsi2.o)
 .debug_frame   0x00000550       0x20 c:/program files/dspace rcphil 2016-a/compiler/qnx650_463/host/win32/x86/usr/bin/../lib/gcc/powerpc-unknown-nto-qnx6.5.0/4.6.3\libgcc.a(_bswapdi2.o)
 .debug_frame   0x00000570       0x2c c:/program files/dspace rcphil 2016-a/compiler/qnx650_463/host/win32/x86/usr/bin/../lib/gcc/powerpc-unknown-nto-qnx6.5.0/4.6.3\libgcc.a(_fixunssfsi.o)
 .debug_frame   0x0000059c       0x2c c:/program files/dspace rcphil 2016-a/compiler/qnx650_463/host/win32/x86/usr/bin/../lib/gcc/powerpc-unknown-nto-qnx6.5.0/4.6.3\libgcc.a(_fixunsdfsi.o)
 .debug_frame   0x000005c8       0x30 c:/program files/dspace rcphil 2016-a/compiler/qnx650_463/host/win32/x86/usr/bin/../lib/gcc/powerpc-unknown-nto-qnx6.5.0/4.6.3\libgcc.a(_fixsfdi.o)
 .debug_frame   0x000005f8       0x30 c:/program files/dspace rcphil 2016-a/compiler/qnx650_463/host/win32/x86/usr/bin/../lib/gcc/powerpc-unknown-nto-qnx6.5.0/4.6.3\libgcc.a(_fixdfdi.o)
 .debug_frame   0x00000628       0x30 c:/program files/dspace rcphil 2016-a/compiler/qnx650_463/host/win32/x86/usr/bin/../lib/gcc/powerpc-unknown-nto-qnx6.5.0/4.6.3\libgcc.a(_fixunssfdi.o)
 .debug_frame   0x00000658       0x30 c:/program files/dspace rcphil 2016-a/compiler/qnx650_463/host/win32/x86/usr/bin/../lib/gcc/powerpc-unknown-nto-qnx6.5.0/4.6.3\libgcc.a(_fixunsdfdi.o)
 .debug_frame   0x00000688       0x2c c:/program files/dspace rcphil 2016-a/compiler/qnx650_463/host/win32/x86/usr/bin/../lib/gcc/powerpc-unknown-nto-qnx6.5.0/4.6.3\libgcc.a(_floatdisf.o)
 .debug_frame   0x000006b4       0x28 c:/program files/dspace rcphil 2016-a/compiler/qnx650_463/host/win32/x86/usr/bin/../lib/gcc/powerpc-unknown-nto-qnx6.5.0/4.6.3\libgcc.a(_floatdidf.o)
 .debug_frame   0x000006dc       0x28 c:/program files/dspace rcphil 2016-a/compiler/qnx650_463/host/win32/x86/usr/bin/../lib/gcc/powerpc-unknown-nto-qnx6.5.0/4.6.3\libgcc.a(_floatundisf.o)
 .debug_frame   0x00000704       0x28 c:/program files/dspace rcphil 2016-a/compiler/qnx650_463/host/win32/x86/usr/bin/../lib/gcc/powerpc-unknown-nto-qnx6.5.0/4.6.3\libgcc.a(_floatundidf.o)
 .debug_frame   0x0000072c       0x30 c:/program files/dspace rcphil 2016-a/compiler/qnx650_463/host/win32/x86/usr/bin/../lib/gcc/powerpc-unknown-nto-qnx6.5.0/4.6.3\libgcc.a(_eprintf.o)
 .debug_frame   0x0000075c       0x20 c:/program files/dspace rcphil 2016-a/compiler/qnx650_463/host/win32/x86/usr/bin/../lib/gcc/powerpc-unknown-nto-qnx6.5.0/4.6.3\libgcc.a(__gcc_bcmp.o)
 .debug_frame   0x0000077c       0x38 c:/program files/dspace rcphil 2016-a/compiler/qnx650_463/host/win32/x86/usr/bin/../lib/gcc/powerpc-unknown-nto-qnx6.5.0/4.6.3\libgcc.a(_divdi3.o)
 .debug_frame   0x000007b4       0x38 c:/program files/dspace rcphil 2016-a/compiler/qnx650_463/host/win32/x86/usr/bin/../lib/gcc/powerpc-unknown-nto-qnx6.5.0/4.6.3\libgcc.a(_moddi3.o)
 .debug_frame   0x000007ec       0x48 c:/program files/dspace rcphil 2016-a/compiler/qnx650_463/host/win32/x86/usr/bin/../lib/gcc/powerpc-unknown-nto-qnx6.5.0/4.6.3\libgcc.a(_udivdi3.o)
 .debug_frame   0x00000834       0x4c c:/program files/dspace rcphil 2016-a/compiler/qnx650_463/host/win32/x86/usr/bin/../lib/gcc/powerpc-unknown-nto-qnx6.5.0/4.6.3\libgcc.a(_umoddi3.o)
 .debug_frame   0x00000880       0x20 c:/program files/dspace rcphil 2016-a/compiler/qnx650_463/host/win32/x86/usr/bin/../lib/gcc/powerpc-unknown-nto-qnx6.5.0/4.6.3\libgcc.a(_udiv_w_sdiv.o)
 .debug_frame   0x000008a0       0x58 c:/program files/dspace rcphil 2016-a/compiler/qnx650_463/host/win32/x86/usr/bin/../lib/gcc/powerpc-unknown-nto-qnx6.5.0/4.6.3\libgcc.a(_udivmoddi4.o)
 .debug_frame   0x000008f8       0x2c c:/program files/dspace rcphil 2016-a/compiler/qnx650_463/host/win32/x86/usr/bin/../lib/gcc/powerpc-unknown-nto-qnx6.5.0/4.6.3\libgcc.a(_pack_sf.o)
 .debug_frame   0x00000924       0x20 c:/program files/dspace rcphil 2016-a/compiler/qnx650_463/host/win32/x86/usr/bin/../lib/gcc/powerpc-unknown-nto-qnx6.5.0/4.6.3\libgcc.a(_unpack_sf.o)
 .debug_frame   0x00000944       0x58 c:/program files/dspace rcphil 2016-a/compiler/qnx650_463/host/win32/x86/usr/bin/../lib/gcc/powerpc-unknown-nto-qnx6.5.0/4.6.3\libgcc.a(_addsub_sf.o)
 .debug_frame   0x0000099c       0x3c c:/program files/dspace rcphil 2016-a/compiler/qnx650_463/host/win32/x86/usr/bin/../lib/gcc/powerpc-unknown-nto-qnx6.5.0/4.6.3\libgcc.a(_mul_sf.o)
 .debug_frame   0x000009d8       0x34 c:/program files/dspace rcphil 2016-a/compiler/qnx650_463/host/win32/x86/usr/bin/../lib/gcc/powerpc-unknown-nto-qnx6.5.0/4.6.3\libgcc.a(_div_sf.o)
 .debug_frame   0x00000a0c       0x20 c:/program files/dspace rcphil 2016-a/compiler/qnx650_463/host/win32/x86/usr/bin/../lib/gcc/powerpc-unknown-nto-qnx6.5.0/4.6.3\libgcc.a(_fpcmp_parts_sf.o)
 .debug_frame   0x00000a2c       0x2c c:/program files/dspace rcphil 2016-a/compiler/qnx650_463/host/win32/x86/usr/bin/../lib/gcc/powerpc-unknown-nto-qnx6.5.0/4.6.3\libgcc.a(_compare_sf.o)
 .debug_frame   0x00000a58       0x2c c:/program files/dspace rcphil 2016-a/compiler/qnx650_463/host/win32/x86/usr/bin/../lib/gcc/powerpc-unknown-nto-qnx6.5.0/4.6.3\libgcc.a(_eq_sf.o)
 .debug_frame   0x00000a84       0x2c c:/program files/dspace rcphil 2016-a/compiler/qnx650_463/host/win32/x86/usr/bin/../lib/gcc/powerpc-unknown-nto-qnx6.5.0/4.6.3\libgcc.a(_ne_sf.o)
 .debug_frame   0x00000ab0       0x2c c:/program files/dspace rcphil 2016-a/compiler/qnx650_463/host/win32/x86/usr/bin/../lib/gcc/powerpc-unknown-nto-qnx6.5.0/4.6.3\libgcc.a(_gt_sf.o)
 .debug_frame   0x00000adc       0x2c c:/program files/dspace rcphil 2016-a/compiler/qnx650_463/host/win32/x86/usr/bin/../lib/gcc/powerpc-unknown-nto-qnx6.5.0/4.6.3\libgcc.a(_ge_sf.o)
 .debug_frame   0x00000b08       0x2c c:/program files/dspace rcphil 2016-a/compiler/qnx650_463/host/win32/x86/usr/bin/../lib/gcc/powerpc-unknown-nto-qnx6.5.0/4.6.3\libgcc.a(_lt_sf.o)
 .debug_frame   0x00000b34       0x2c c:/program files/dspace rcphil 2016-a/compiler/qnx650_463/host/win32/x86/usr/bin/../lib/gcc/powerpc-unknown-nto-qnx6.5.0/4.6.3\libgcc.a(_le_sf.o)
 .debug_frame   0x00000b60       0x2c c:/program files/dspace rcphil 2016-a/compiler/qnx650_463/host/win32/x86/usr/bin/../lib/gcc/powerpc-unknown-nto-qnx6.5.0/4.6.3\libgcc.a(_unord_sf.o)
 .debug_frame   0x00000b8c       0x30 c:/program files/dspace rcphil 2016-a/compiler/qnx650_463/host/win32/x86/usr/bin/../lib/gcc/powerpc-unknown-nto-qnx6.5.0/4.6.3\libgcc.a(_si_to_sf.o)
 .debug_frame   0x00000bbc       0x34 c:/program files/dspace rcphil 2016-a/compiler/qnx650_463/host/win32/x86/usr/bin/../lib/gcc/powerpc-unknown-nto-qnx6.5.0/4.6.3\libgcc.a(_sf_to_si.o)
 .debug_frame   0x00000bf0       0x2c c:/program files/dspace rcphil 2016-a/compiler/qnx650_463/host/win32/x86/usr/bin/../lib/gcc/powerpc-unknown-nto-qnx6.5.0/4.6.3\libgcc.a(_negate_sf.o)
 .debug_frame   0x00000c1c       0x2c c:/program files/dspace rcphil 2016-a/compiler/qnx650_463/host/win32/x86/usr/bin/../lib/gcc/powerpc-unknown-nto-qnx6.5.0/4.6.3\libgcc.a(_make_sf.o)
 .debug_frame   0x00000c48       0x2c c:/program files/dspace rcphil 2016-a/compiler/qnx650_463/host/win32/x86/usr/bin/../lib/gcc/powerpc-unknown-nto-qnx6.5.0/4.6.3\libgcc.a(_sf_to_df.o)
 .debug_frame   0x00000c74       0x38 c:/program files/dspace rcphil 2016-a/compiler/qnx650_463/host/win32/x86/usr/bin/../lib/gcc/powerpc-unknown-nto-qnx6.5.0/4.6.3\libgcc.a(_usi_to_sf.o)
 .debug_frame   0x00000cac       0x54 c:/program files/dspace rcphil 2016-a/compiler/qnx650_463/host/win32/x86/usr/bin/../lib/gcc/powerpc-unknown-nto-qnx6.5.0/4.6.3\libgcc.a(_pack_df.o)
 .debug_frame   0x00000d00       0x20 c:/program files/dspace rcphil 2016-a/compiler/qnx650_463/host/win32/x86/usr/bin/../lib/gcc/powerpc-unknown-nto-qnx6.5.0/4.6.3\libgcc.a(_unpack_df.o)
 .debug_frame   0x00000d20       0x78 c:/program files/dspace rcphil 2016-a/compiler/qnx650_463/host/win32/x86/usr/bin/../lib/gcc/powerpc-unknown-nto-qnx6.5.0/4.6.3\libgcc.a(_addsub_df.o)
 .debug_frame   0x00000d98       0x48 c:/program files/dspace rcphil 2016-a/compiler/qnx650_463/host/win32/x86/usr/bin/../lib/gcc/powerpc-unknown-nto-qnx6.5.0/4.6.3\libgcc.a(_mul_df.o)
 .debug_frame   0x00000de0       0x44 c:/program files/dspace rcphil 2016-a/compiler/qnx650_463/host/win32/x86/usr/bin/../lib/gcc/powerpc-unknown-nto-qnx6.5.0/4.6.3\libgcc.a(_div_df.o)
 .debug_frame   0x00000e24       0x20 c:/program files/dspace rcphil 2016-a/compiler/qnx650_463/host/win32/x86/usr/bin/../lib/gcc/powerpc-unknown-nto-qnx6.5.0/4.6.3\libgcc.a(_fpcmp_parts_df.o)
 .debug_frame   0x00000e44       0x2c c:/program files/dspace rcphil 2016-a/compiler/qnx650_463/host/win32/x86/usr/bin/../lib/gcc/powerpc-unknown-nto-qnx6.5.0/4.6.3\libgcc.a(_compare_df.o)
 .debug_frame   0x00000e70       0x2c c:/program files/dspace rcphil 2016-a/compiler/qnx650_463/host/win32/x86/usr/bin/../lib/gcc/powerpc-unknown-nto-qnx6.5.0/4.6.3\libgcc.a(_eq_df.o)
 .debug_frame   0x00000e9c       0x2c c:/program files/dspace rcphil 2016-a/compiler/qnx650_463/host/win32/x86/usr/bin/../lib/gcc/powerpc-unknown-nto-qnx6.5.0/4.6.3\libgcc.a(_ne_df.o)
 .debug_frame   0x00000ec8       0x2c c:/program files/dspace rcphil 2016-a/compiler/qnx650_463/host/win32/x86/usr/bin/../lib/gcc/powerpc-unknown-nto-qnx6.5.0/4.6.3\libgcc.a(_gt_df.o)
 .debug_frame   0x00000ef4       0x2c c:/program files/dspace rcphil 2016-a/compiler/qnx650_463/host/win32/x86/usr/bin/../lib/gcc/powerpc-unknown-nto-qnx6.5.0/4.6.3\libgcc.a(_ge_df.o)
 .debug_frame   0x00000f20       0x2c c:/program files/dspace rcphil 2016-a/compiler/qnx650_463/host/win32/x86/usr/bin/../lib/gcc/powerpc-unknown-nto-qnx6.5.0/4.6.3\libgcc.a(_lt_df.o)
 .debug_frame   0x00000f4c       0x2c c:/program files/dspace rcphil 2016-a/compiler/qnx650_463/host/win32/x86/usr/bin/../lib/gcc/powerpc-unknown-nto-qnx6.5.0/4.6.3\libgcc.a(_le_df.o)
 .debug_frame   0x00000f78       0x2c c:/program files/dspace rcphil 2016-a/compiler/qnx650_463/host/win32/x86/usr/bin/../lib/gcc/powerpc-unknown-nto-qnx6.5.0/4.6.3\libgcc.a(_unord_df.o)
 .debug_frame   0x00000fa4       0x30 c:/program files/dspace rcphil 2016-a/compiler/qnx650_463/host/win32/x86/usr/bin/../lib/gcc/powerpc-unknown-nto-qnx6.5.0/4.6.3\libgcc.a(_si_to_df.o)
 .debug_frame   0x00000fd4       0x34 c:/program files/dspace rcphil 2016-a/compiler/qnx650_463/host/win32/x86/usr/bin/../lib/gcc/powerpc-unknown-nto-qnx6.5.0/4.6.3\libgcc.a(_df_to_si.o)
 .debug_frame   0x00001008       0x2c c:/program files/dspace rcphil 2016-a/compiler/qnx650_463/host/win32/x86/usr/bin/../lib/gcc/powerpc-unknown-nto-qnx6.5.0/4.6.3\libgcc.a(_negate_df.o)
 .debug_frame   0x00001034       0x2c c:/program files/dspace rcphil 2016-a/compiler/qnx650_463/host/win32/x86/usr/bin/../lib/gcc/powerpc-unknown-nto-qnx6.5.0/4.6.3\libgcc.a(_make_df.o)
 .debug_frame   0x00001060       0x2c c:/program files/dspace rcphil 2016-a/compiler/qnx650_463/host/win32/x86/usr/bin/../lib/gcc/powerpc-unknown-nto-qnx6.5.0/4.6.3\libgcc.a(_df_to_sf.o)
 .debug_frame   0x0000108c       0x3c c:/program files/dspace rcphil 2016-a/compiler/qnx650_463/host/win32/x86/usr/bin/../lib/gcc/powerpc-unknown-nto-qnx6.5.0/4.6.3\libgcc.a(_usi_to_df.o)
 .debug_frame   0x000010c8      0x6ec c:/program files/dspace rcphil 2016-a/compiler/qnx650_463/host/win32/x86/usr/bin/../lib/gcc/powerpc-unknown-nto-qnx6.5.0/4.6.3\libgcc.a(unwind-dw2.o)
 .debug_frame   0x000017b4      0x434 c:/program files/dspace rcphil 2016-a/compiler/qnx650_463/host/win32/x86/usr/bin/../lib/gcc/powerpc-unknown-nto-qnx6.5.0/4.6.3\libgcc.a(unwind-dw2-fde.o)
 .debug_frame   0x00001be8       0x6c c:/program files/dspace rcphil 2016-a/compiler/qnx650_463/host/win32/x86/usr/bin/../lib/gcc/powerpc-unknown-nto-qnx6.5.0/4.6.3\libgcc.a(unwind-c.o)
 .debug_frame   0x00001c54       0xa0 c:/program files/dspace rcphil 2016-a/compiler/qnx650_463/host/win32/x86/usr/bin/../lib/gcc/powerpc-unknown-nto-qnx6.5.0/4.6.3\libgcc.a(emutls.o)

.debug_str      0x00000000     0x827a
 *(.debug_str)
 .debug_str     0x00000000      0x11a c:/program files/dspace rcphil 2016-a/compiler/qnx650_463/host/win32/x86/usr/bin/../lib/gcc/powerpc-unknown-nto-qnx6.5.0/4.6.3\libgcc.a(_muldi3.o)
                                0x16e (size before relaxing)
 .debug_str     0x0000011a        0x9 c:/program files/dspace rcphil 2016-a/compiler/qnx650_463/host/win32/x86/usr/bin/../lib/gcc/powerpc-unknown-nto-qnx6.5.0/4.6.3\libgcc.a(_negdi2.o)
                                0x164 (size before relaxing)
 .debug_str     0x00000123       0x23 c:/program files/dspace rcphil 2016-a/compiler/qnx650_463/host/win32/x86/usr/bin/../lib/gcc/powerpc-unknown-nto-qnx6.5.0/4.6.3\libgcc.a(_lshrdi3.o)
                                0x17e (size before relaxing)
 .debug_str     0x00000146        0xa c:/program files/dspace rcphil 2016-a/compiler/qnx650_463/host/win32/x86/usr/bin/../lib/gcc/powerpc-unknown-nto-qnx6.5.0/4.6.3\libgcc.a(_ashldi3.o)
                                0x17e (size before relaxing)
 .debug_str     0x00000150        0xa c:/program files/dspace rcphil 2016-a/compiler/qnx650_463/host/win32/x86/usr/bin/../lib/gcc/powerpc-unknown-nto-qnx6.5.0/4.6.3\libgcc.a(_ashrdi3.o)
                                0x17e (size before relaxing)
 .debug_str     0x0000015a       0x19 c:/program files/dspace rcphil 2016-a/compiler/qnx650_463/host/win32/x86/usr/bin/../lib/gcc/powerpc-unknown-nto-qnx6.5.0/4.6.3\libgcc.a(_cmpdi2.o)
                                0x174 (size before relaxing)
 .debug_str     0x00000173        0xa c:/program files/dspace rcphil 2016-a/compiler/qnx650_463/host/win32/x86/usr/bin/../lib/gcc/powerpc-unknown-nto-qnx6.5.0/4.6.3\libgcc.a(_ucmpdi2.o)
                                0x175 (size before relaxing)
 .debug_str     0x0000017d        0xe c:/program files/dspace rcphil 2016-a/compiler/qnx650_463/host/win32/x86/usr/bin/../lib/gcc/powerpc-unknown-nto-qnx6.5.0/4.6.3\libgcc.a(_clear_cache.o)
                                0x13d (size before relaxing)
 .debug_str     0x0000018b       0x17 c:/program files/dspace rcphil 2016-a/compiler/qnx650_463/host/win32/x86/usr/bin/../lib/gcc/powerpc-unknown-nto-qnx6.5.0/4.6.3\libgcc.a(_enable_execute_stack.o)
                                0x14b (size before relaxing)
 .debug_str     0x00000000      0x12f c:/program files/dspace rcphil 2016-a/compiler/qnx650_463/host/win32/x86/usr/bin/../lib/gcc/powerpc-unknown-nto-qnx6.5.0/4.6.3\libgcc.a(_trampoline.o)
 .debug_str     0x00000000      0x12f c:/program files/dspace rcphil 2016-a/compiler/qnx650_463/host/win32/x86/usr/bin/../lib/gcc/powerpc-unknown-nto-qnx6.5.0/4.6.3\libgcc.a(__main.o)
 .debug_str     0x000001a2        0xa c:/program files/dspace rcphil 2016-a/compiler/qnx650_463/host/win32/x86/usr/bin/../lib/gcc/powerpc-unknown-nto-qnx6.5.0/4.6.3\libgcc.a(_absvsi2.o)
                                0x148 (size before relaxing)
 .debug_str     0x000001ac       0x12 c:/program files/dspace rcphil 2016-a/compiler/qnx650_463/host/win32/x86/usr/bin/../lib/gcc/powerpc-unknown-nto-qnx6.5.0/4.6.3\libgcc.a(_absvdi2.o)
                                0x148 (size before relaxing)
 .debug_str     0x000001be        0xa c:/program files/dspace rcphil 2016-a/compiler/qnx650_463/host/win32/x86/usr/bin/../lib/gcc/powerpc-unknown-nto-qnx6.5.0/4.6.3\libgcc.a(_addvsi3.o)
                                0x148 (size before relaxing)
 .debug_str     0x000001c8        0xa c:/program files/dspace rcphil 2016-a/compiler/qnx650_463/host/win32/x86/usr/bin/../lib/gcc/powerpc-unknown-nto-qnx6.5.0/4.6.3\libgcc.a(_addvdi3.o)
                                0x148 (size before relaxing)
 .debug_str     0x000001d2        0xa c:/program files/dspace rcphil 2016-a/compiler/qnx650_463/host/win32/x86/usr/bin/../lib/gcc/powerpc-unknown-nto-qnx6.5.0/4.6.3\libgcc.a(_subvsi3.o)
                                0x148 (size before relaxing)
 .debug_str     0x000001dc        0xa c:/program files/dspace rcphil 2016-a/compiler/qnx650_463/host/win32/x86/usr/bin/../lib/gcc/powerpc-unknown-nto-qnx6.5.0/4.6.3\libgcc.a(_subvdi3.o)
                                0x148 (size before relaxing)
 .debug_str     0x000001e6        0xa c:/program files/dspace rcphil 2016-a/compiler/qnx650_463/host/win32/x86/usr/bin/../lib/gcc/powerpc-unknown-nto-qnx6.5.0/4.6.3\libgcc.a(_mulvsi3.o)
                                0x147 (size before relaxing)
 .debug_str     0x000001f0        0xa c:/program files/dspace rcphil 2016-a/compiler/qnx650_463/host/win32/x86/usr/bin/../lib/gcc/powerpc-unknown-nto-qnx6.5.0/4.6.3\libgcc.a(_mulvdi3.o)
                                0x16d (size before relaxing)
 .debug_str     0x000001fa        0xa c:/program files/dspace rcphil 2016-a/compiler/qnx650_463/host/win32/x86/usr/bin/../lib/gcc/powerpc-unknown-nto-qnx6.5.0/4.6.3\libgcc.a(_negvsi2.o)
                                0x148 (size before relaxing)
 .debug_str     0x00000204        0xa c:/program files/dspace rcphil 2016-a/compiler/qnx650_463/host/win32/x86/usr/bin/../lib/gcc/powerpc-unknown-nto-qnx6.5.0/4.6.3\libgcc.a(_negvdi2.o)
                                0x148 (size before relaxing)
 .debug_str     0x00000000      0x12f c:/program files/dspace rcphil 2016-a/compiler/qnx650_463/host/win32/x86/usr/bin/../lib/gcc/powerpc-unknown-nto-qnx6.5.0/4.6.3\libgcc.a(_ctors.o)
 .debug_str     0x0000020e       0x19 c:/program files/dspace rcphil 2016-a/compiler/qnx650_463/host/win32/x86/usr/bin/../lib/gcc/powerpc-unknown-nto-qnx6.5.0/4.6.3\libgcc.a(_ffssi2.o)
                                0x156 (size before relaxing)
 .debug_str     0x00000227        0x9 c:/program files/dspace rcphil 2016-a/compiler/qnx650_463/host/win32/x86/usr/bin/../lib/gcc/powerpc-unknown-nto-qnx6.5.0/4.6.3\libgcc.a(_ffsdi2.o)
                                0x17f (size before relaxing)
 .debug_str     0x00000230     0x5e46 c:/program files/dspace rcphil 2016-a/compiler/qnx650_463/host/win32/x86/usr/bin/../lib/gcc/powerpc-unknown-nto-qnx6.5.0/4.6.3\libgcc.a(_clz.o)
                               0x5f75 (size before relaxing)
 .debug_str     0x00006076        0x9 c:/program files/dspace rcphil 2016-a/compiler/qnx650_463/host/win32/x86/usr/bin/../lib/gcc/powerpc-unknown-nto-qnx6.5.0/4.6.3\libgcc.a(_clzsi2.o)
                                0x147 (size before relaxing)
 .debug_str     0x0000607f        0x9 c:/program files/dspace rcphil 2016-a/compiler/qnx650_463/host/win32/x86/usr/bin/../lib/gcc/powerpc-unknown-nto-qnx6.5.0/4.6.3\libgcc.a(_clzdi2.o)
                                0x171 (size before relaxing)
 .debug_str     0x00006088        0x9 c:/program files/dspace rcphil 2016-a/compiler/qnx650_463/host/win32/x86/usr/bin/../lib/gcc/powerpc-unknown-nto-qnx6.5.0/4.6.3\libgcc.a(_ctzsi2.o)
                                0x157 (size before relaxing)
 .debug_str     0x00006091        0x9 c:/program files/dspace rcphil 2016-a/compiler/qnx650_463/host/win32/x86/usr/bin/../lib/gcc/powerpc-unknown-nto-qnx6.5.0/4.6.3\libgcc.a(_ctzdi2.o)
                                0x181 (size before relaxing)
 .debug_str     0x0000609a        0xf c:/program files/dspace rcphil 2016-a/compiler/qnx650_463/host/win32/x86/usr/bin/../lib/gcc/powerpc-unknown-nto-qnx6.5.0/4.6.3\libgcc.a(_popcount_tab.o)
                               0x5f7a (size before relaxing)
 .debug_str     0x000060a9        0xe c:/program files/dspace rcphil 2016-a/compiler/qnx650_463/host/win32/x86/usr/bin/../lib/gcc/powerpc-unknown-nto-qnx6.5.0/4.6.3\libgcc.a(_popcountsi2.o)
                                0x15c (size before relaxing)
 .debug_str     0x000060b7        0xe c:/program files/dspace rcphil 2016-a/compiler/qnx650_463/host/win32/x86/usr/bin/../lib/gcc/powerpc-unknown-nto-qnx6.5.0/4.6.3\libgcc.a(_popcountdi2.o)
                                0x15c (size before relaxing)
 .debug_str     0x000060c5        0xc c:/program files/dspace rcphil 2016-a/compiler/qnx650_463/host/win32/x86/usr/bin/../lib/gcc/powerpc-unknown-nto-qnx6.5.0/4.6.3\libgcc.a(_paritysi2.o)
                                0x143 (size before relaxing)
 .debug_str     0x000060d1        0xc c:/program files/dspace rcphil 2016-a/compiler/qnx650_463/host/win32/x86/usr/bin/../lib/gcc/powerpc-unknown-nto-qnx6.5.0/4.6.3\libgcc.a(_paritydi2.o)
                                0x16f (size before relaxing)
 .debug_str     0x000060dd       0x11 c:/program files/dspace rcphil 2016-a/compiler/qnx650_463/host/win32/x86/usr/bin/../lib/gcc/powerpc-unknown-nto-qnx6.5.0/4.6.3\libgcc.a(_powisf2.o)
                                0x140 (size before relaxing)
 .debug_str     0x000060ee       0x11 c:/program files/dspace rcphil 2016-a/compiler/qnx650_463/host/win32/x86/usr/bin/../lib/gcc/powerpc-unknown-nto-qnx6.5.0/4.6.3\libgcc.a(_powidf2.o)
                                0x140 (size before relaxing)
 .debug_str     0x00000000      0x12f c:/program files/dspace rcphil 2016-a/compiler/qnx650_463/host/win32/x86/usr/bin/../lib/gcc/powerpc-unknown-nto-qnx6.5.0/4.6.3\libgcc.a(_powixf2.o)
 .debug_str     0x00000000      0x12f c:/program files/dspace rcphil 2016-a/compiler/qnx650_463/host/win32/x86/usr/bin/../lib/gcc/powerpc-unknown-nto-qnx6.5.0/4.6.3\libgcc.a(_powitf2.o)
 .debug_str     0x000060ff       0x1d c:/program files/dspace rcphil 2016-a/compiler/qnx650_463/host/win32/x86/usr/bin/../lib/gcc/powerpc-unknown-nto-qnx6.5.0/4.6.3\libgcc.a(_mulsc3.o)
                                0x153 (size before relaxing)
 .debug_str     0x0000611c       0x10 c:/program files/dspace rcphil 2016-a/compiler/qnx650_463/host/win32/x86/usr/bin/../lib/gcc/powerpc-unknown-nto-qnx6.5.0/4.6.3\libgcc.a(_muldc3.o)
                                0x153 (size before relaxing)
 .debug_str     0x00000000      0x12f c:/program files/dspace rcphil 2016-a/compiler/qnx650_463/host/win32/x86/usr/bin/../lib/gcc/powerpc-unknown-nto-qnx6.5.0/4.6.3\libgcc.a(_mulxc3.o)
 .debug_str     0x00000000      0x12f c:/program files/dspace rcphil 2016-a/compiler/qnx650_463/host/win32/x86/usr/bin/../lib/gcc/powerpc-unknown-nto-qnx6.5.0/4.6.3\libgcc.a(_multc3.o)
 .debug_str     0x0000612c       0x15 c:/program files/dspace rcphil 2016-a/compiler/qnx650_463/host/win32/x86/usr/bin/../lib/gcc/powerpc-unknown-nto-qnx6.5.0/4.6.3\libgcc.a(_divsc3.o)
                                0x152 (size before relaxing)
 .debug_str     0x00006141        0x9 c:/program files/dspace rcphil 2016-a/compiler/qnx650_463/host/win32/x86/usr/bin/../lib/gcc/powerpc-unknown-nto-qnx6.5.0/4.6.3\libgcc.a(_divdc3.o)
                                0x152 (size before relaxing)
 .debug_str     0x00000000      0x12f c:/program files/dspace rcphil 2016-a/compiler/qnx650_463/host/win32/x86/usr/bin/../lib/gcc/powerpc-unknown-nto-qnx6.5.0/4.6.3\libgcc.a(_divxc3.o)
 .debug_str     0x00000000      0x12f c:/program files/dspace rcphil 2016-a/compiler/qnx650_463/host/win32/x86/usr/bin/../lib/gcc/powerpc-unknown-nto-qnx6.5.0/4.6.3\libgcc.a(_divtc3.o)
 .debug_str     0x0000614a        0xb c:/program files/dspace rcphil 2016-a/compiler/qnx650_463/host/win32/x86/usr/bin/../lib/gcc/powerpc-unknown-nto-qnx6.5.0/4.6.3\libgcc.a(_bswapsi2.o)
                                0x141 (size before relaxing)
 .debug_str     0x00006155        0xb c:/program files/dspace rcphil 2016-a/compiler/qnx650_463/host/win32/x86/usr/bin/../lib/gcc/powerpc-unknown-nto-qnx6.5.0/4.6.3\libgcc.a(_bswapdi2.o)
                                0x141 (size before relaxing)
 .debug_str     0x00006160        0xd c:/program files/dspace rcphil 2016-a/compiler/qnx650_463/host/win32/x86/usr/bin/../lib/gcc/powerpc-unknown-nto-qnx6.5.0/4.6.3\libgcc.a(_fixunssfsi.o)
                                0x152 (size before relaxing)
 .debug_str     0x0000616d        0xd c:/program files/dspace rcphil 2016-a/compiler/qnx650_463/host/win32/x86/usr/bin/../lib/gcc/powerpc-unknown-nto-qnx6.5.0/4.6.3\libgcc.a(_fixunsdfsi.o)
                                0x152 (size before relaxing)
 .debug_str     0x00000000      0x12f c:/program files/dspace rcphil 2016-a/compiler/qnx650_463/host/win32/x86/usr/bin/../lib/gcc/powerpc-unknown-nto-qnx6.5.0/4.6.3\libgcc.a(_fixunsxfsi.o)
 .debug_str     0x0000617a        0xa c:/program files/dspace rcphil 2016-a/compiler/qnx650_463/host/win32/x86/usr/bin/../lib/gcc/powerpc-unknown-nto-qnx6.5.0/4.6.3\libgcc.a(_fixsfdi.o)
                                0x147 (size before relaxing)
 .debug_str     0x00006184        0xa c:/program files/dspace rcphil 2016-a/compiler/qnx650_463/host/win32/x86/usr/bin/../lib/gcc/powerpc-unknown-nto-qnx6.5.0/4.6.3\libgcc.a(_fixdfdi.o)
                                0x147 (size before relaxing)
 .debug_str     0x00000000      0x12f c:/program files/dspace rcphil 2016-a/compiler/qnx650_463/host/win32/x86/usr/bin/../lib/gcc/powerpc-unknown-nto-qnx6.5.0/4.6.3\libgcc.a(_fixxfdi.o)
 .debug_str     0x00000000      0x12f c:/program files/dspace rcphil 2016-a/compiler/qnx650_463/host/win32/x86/usr/bin/../lib/gcc/powerpc-unknown-nto-qnx6.5.0/4.6.3\libgcc.a(_fixtfdi.o)
 .debug_str     0x0000618e        0xd c:/program files/dspace rcphil 2016-a/compiler/qnx650_463/host/win32/x86/usr/bin/../lib/gcc/powerpc-unknown-nto-qnx6.5.0/4.6.3\libgcc.a(_fixunssfdi.o)
                                0x15a (size before relaxing)
 .debug_str     0x0000619b        0xd c:/program files/dspace rcphil 2016-a/compiler/qnx650_463/host/win32/x86/usr/bin/../lib/gcc/powerpc-unknown-nto-qnx6.5.0/4.6.3\libgcc.a(_fixunsdfdi.o)
                                0x153 (size before relaxing)
 .debug_str     0x00000000      0x12f c:/program files/dspace rcphil 2016-a/compiler/qnx650_463/host/win32/x86/usr/bin/../lib/gcc/powerpc-unknown-nto-qnx6.5.0/4.6.3\libgcc.a(_fixunsxfdi.o)
 .debug_str     0x00000000      0x12f c:/program files/dspace rcphil 2016-a/compiler/qnx650_463/host/win32/x86/usr/bin/../lib/gcc/powerpc-unknown-nto-qnx6.5.0/4.6.3\libgcc.a(_fixunstfdi.o)
 .debug_str     0x000061a8        0xc c:/program files/dspace rcphil 2016-a/compiler/qnx650_463/host/win32/x86/usr/bin/../lib/gcc/powerpc-unknown-nto-qnx6.5.0/4.6.3\libgcc.a(_floatdisf.o)
                                0x167 (size before relaxing)
 .debug_str     0x000061b4        0xc c:/program files/dspace rcphil 2016-a/compiler/qnx650_463/host/win32/x86/usr/bin/../lib/gcc/powerpc-unknown-nto-qnx6.5.0/4.6.3\libgcc.a(_floatdidf.o)
                                0x158 (size before relaxing)
 .debug_str     0x00000000      0x12f c:/program files/dspace rcphil 2016-a/compiler/qnx650_463/host/win32/x86/usr/bin/../lib/gcc/powerpc-unknown-nto-qnx6.5.0/4.6.3\libgcc.a(_floatdixf.o)
 .debug_str     0x00000000      0x12f c:/program files/dspace rcphil 2016-a/compiler/qnx650_463/host/win32/x86/usr/bin/../lib/gcc/powerpc-unknown-nto-qnx6.5.0/4.6.3\libgcc.a(_floatditf.o)
 .debug_str     0x000061c0        0xe c:/program files/dspace rcphil 2016-a/compiler/qnx650_463/host/win32/x86/usr/bin/../lib/gcc/powerpc-unknown-nto-qnx6.5.0/4.6.3\libgcc.a(_floatundisf.o)
                                0x15b (size before relaxing)
 .debug_str     0x000061ce        0xe c:/program files/dspace rcphil 2016-a/compiler/qnx650_463/host/win32/x86/usr/bin/../lib/gcc/powerpc-unknown-nto-qnx6.5.0/4.6.3\libgcc.a(_floatundidf.o)
                                0x154 (size before relaxing)
 .debug_str     0x00000000      0x12f c:/program files/dspace rcphil 2016-a/compiler/qnx650_463/host/win32/x86/usr/bin/../lib/gcc/powerpc-unknown-nto-qnx6.5.0/4.6.3\libgcc.a(_floatundixf.o)
 .debug_str     0x00000000      0x12f c:/program files/dspace rcphil 2016-a/compiler/qnx650_463/host/win32/x86/usr/bin/../lib/gcc/powerpc-unknown-nto-qnx6.5.0/4.6.3\libgcc.a(_floatunditf.o)
 .debug_str     0x000061dc       0xdf c:/program files/dspace rcphil 2016-a/compiler/qnx650_463/host/win32/x86/usr/bin/../lib/gcc/powerpc-unknown-nto-qnx6.5.0/4.6.3\libgcc.a(_eprintf.o)
                                0x219 (size before relaxing)
 .debug_str     0x000062bb       0x19 c:/program files/dspace rcphil 2016-a/compiler/qnx650_463/host/win32/x86/usr/bin/../lib/gcc/powerpc-unknown-nto-qnx6.5.0/4.6.3\libgcc.a(__gcc_bcmp.o)
                                0x14d (size before relaxing)
 .debug_str     0x000062d4       0x34 c:/program files/dspace rcphil 2016-a/compiler/qnx650_463/host/win32/x86/usr/bin/../lib/gcc/powerpc-unknown-nto-qnx6.5.0/4.6.3\libgcc.a(_divdi3.o)
                                0x1a1 (size before relaxing)
 .debug_str     0x00006308        0x9 c:/program files/dspace rcphil 2016-a/compiler/qnx650_463/host/win32/x86/usr/bin/../lib/gcc/powerpc-unknown-nto-qnx6.5.0/4.6.3\libgcc.a(_moddi3.o)
                                0x1a1 (size before relaxing)
 .debug_str     0x00006311        0xa c:/program files/dspace rcphil 2016-a/compiler/qnx650_463/host/win32/x86/usr/bin/../lib/gcc/powerpc-unknown-nto-qnx6.5.0/4.6.3\libgcc.a(_udivdi3.o)
                                0x1a2 (size before relaxing)
 .debug_str     0x0000631b        0xa c:/program files/dspace rcphil 2016-a/compiler/qnx650_463/host/win32/x86/usr/bin/../lib/gcc/powerpc-unknown-nto-qnx6.5.0/4.6.3\libgcc.a(_umoddi3.o)
                                0x1a2 (size before relaxing)
 .debug_str     0x00006325        0xe c:/program files/dspace rcphil 2016-a/compiler/qnx650_463/host/win32/x86/usr/bin/../lib/gcc/powerpc-unknown-nto-qnx6.5.0/4.6.3\libgcc.a(_udiv_w_sdiv.o)
                                0x145 (size before relaxing)
 .debug_str     0x00000000      0x198 c:/program files/dspace rcphil 2016-a/compiler/qnx650_463/host/win32/x86/usr/bin/../lib/gcc/powerpc-unknown-nto-qnx6.5.0/4.6.3\libgcc.a(_udivmoddi4.o)
 .debug_str     0x00006333       0xdb c:/program files/dspace rcphil 2016-a/compiler/qnx650_463/host/win32/x86/usr/bin/../lib/gcc/powerpc-unknown-nto-qnx6.5.0/4.6.3\libgcc.a(_pack_sf.o)
                                0x1d4 (size before relaxing)
 .debug_str     0x0000640e        0xb c:/program files/dspace rcphil 2016-a/compiler/qnx650_463/host/win32/x86/usr/bin/../lib/gcc/powerpc-unknown-nto-qnx6.5.0/4.6.3\libgcc.a(_unpack_sf.o)
                                0x1b6 (size before relaxing)
 .debug_str     0x00006419       0x7b c:/program files/dspace rcphil 2016-a/compiler/qnx650_463/host/win32/x86/usr/bin/../lib/gcc/powerpc-unknown-nto-qnx6.5.0/4.6.3\libgcc.a(_addsub_sf.o)
                                0x245 (size before relaxing)
 .debug_str     0x00006494       0x1d c:/program files/dspace rcphil 2016-a/compiler/qnx650_463/host/win32/x86/usr/bin/../lib/gcc/powerpc-unknown-nto-qnx6.5.0/4.6.3\libgcc.a(_mul_sf.o)
                                0x1fc (size before relaxing)
 .debug_str     0x000064b1       0x35 c:/program files/dspace rcphil 2016-a/compiler/qnx650_463/host/win32/x86/usr/bin/../lib/gcc/powerpc-unknown-nto-qnx6.5.0/4.6.3\libgcc.a(_div_sf.o)
                                0x207 (size before relaxing)
 .debug_str     0x000064e6       0x10 c:/program files/dspace rcphil 2016-a/compiler/qnx650_463/host/win32/x86/usr/bin/../lib/gcc/powerpc-unknown-nto-qnx6.5.0/4.6.3\libgcc.a(_fpcmp_parts_sf.o)
                                0x19f (size before relaxing)
 .debug_str     0x000064f6       0x11 c:/program files/dspace rcphil 2016-a/compiler/qnx650_463/host/win32/x86/usr/bin/../lib/gcc/powerpc-unknown-nto-qnx6.5.0/4.6.3\libgcc.a(_compare_sf.o)
                                0x1c8 (size before relaxing)
 .debug_str     0x00006507        0x8 c:/program files/dspace rcphil 2016-a/compiler/qnx650_463/host/win32/x86/usr/bin/../lib/gcc/powerpc-unknown-nto-qnx6.5.0/4.6.3\libgcc.a(_eq_sf.o)
                                0x1cd (size before relaxing)
 .debug_str     0x0000650f        0x8 c:/program files/dspace rcphil 2016-a/compiler/qnx650_463/host/win32/x86/usr/bin/../lib/gcc/powerpc-unknown-nto-qnx6.5.0/4.6.3\libgcc.a(_ne_sf.o)
                                0x1cd (size before relaxing)
 .debug_str     0x00006517        0x8 c:/program files/dspace rcphil 2016-a/compiler/qnx650_463/host/win32/x86/usr/bin/../lib/gcc/powerpc-unknown-nto-qnx6.5.0/4.6.3\libgcc.a(_gt_sf.o)
                                0x1cd (size before relaxing)
 .debug_str     0x0000651f        0x8 c:/program files/dspace rcphil 2016-a/compiler/qnx650_463/host/win32/x86/usr/bin/../lib/gcc/powerpc-unknown-nto-qnx6.5.0/4.6.3\libgcc.a(_ge_sf.o)
                                0x1cd (size before relaxing)
 .debug_str     0x00006527        0x8 c:/program files/dspace rcphil 2016-a/compiler/qnx650_463/host/win32/x86/usr/bin/../lib/gcc/powerpc-unknown-nto-qnx6.5.0/4.6.3\libgcc.a(_lt_sf.o)
                                0x1cd (size before relaxing)
 .debug_str     0x0000652f        0x8 c:/program files/dspace rcphil 2016-a/compiler/qnx650_463/host/win32/x86/usr/bin/../lib/gcc/powerpc-unknown-nto-qnx6.5.0/4.6.3\libgcc.a(_le_sf.o)
                                0x1cd (size before relaxing)
 .debug_str     0x00006537        0xb c:/program files/dspace rcphil 2016-a/compiler/qnx650_463/host/win32/x86/usr/bin/../lib/gcc/powerpc-unknown-nto-qnx6.5.0/4.6.3\libgcc.a(_unord_sf.o)
                                0x1d0 (size before relaxing)
 .debug_str     0x00006542       0x18 c:/program files/dspace rcphil 2016-a/compiler/qnx650_463/host/win32/x86/usr/bin/../lib/gcc/powerpc-unknown-nto-qnx6.5.0/4.6.3\libgcc.a(_si_to_sf.o)
                                0x1c0 (size before relaxing)
 .debug_str     0x0000655a        0xa c:/program files/dspace rcphil 2016-a/compiler/qnx650_463/host/win32/x86/usr/bin/../lib/gcc/powerpc-unknown-nto-qnx6.5.0/4.6.3\libgcc.a(_sf_to_si.o)
                                0x1d5 (size before relaxing)
 .debug_str     0x00006564       0x13 c:/program files/dspace rcphil 2016-a/compiler/qnx650_463/host/win32/x86/usr/bin/../lib/gcc/powerpc-unknown-nto-qnx6.5.0/4.6.3\libgcc.a(_negate_sf.o)
                                0x1c4 (size before relaxing)
 .debug_str     0x00006577        0xa c:/program files/dspace rcphil 2016-a/compiler/qnx650_463/host/win32/x86/usr/bin/../lib/gcc/powerpc-unknown-nto-qnx6.5.0/4.6.3\libgcc.a(_make_sf.o)
                                0x192 (size before relaxing)
 .debug_str     0x00006581        0xe c:/program files/dspace rcphil 2016-a/compiler/qnx650_463/host/win32/x86/usr/bin/../lib/gcc/powerpc-unknown-nto-qnx6.5.0/4.6.3\libgcc.a(_sf_to_df.o)
                                0x1ce (size before relaxing)
 .debug_str     0x00000000     0x5fb0 c:/program files/dspace rcphil 2016-a/compiler/qnx650_463/host/win32/x86/usr/bin/../lib/gcc/powerpc-unknown-nto-qnx6.5.0/4.6.3\libgcc.a(_thenan_sf.o)
 .debug_str     0x00000000      0x17c c:/program files/dspace rcphil 2016-a/compiler/qnx650_463/host/win32/x86/usr/bin/../lib/gcc/powerpc-unknown-nto-qnx6.5.0/4.6.3\libgcc.a(_sf_to_usi.o)
 .debug_str     0x0000658f       0x14 c:/program files/dspace rcphil 2016-a/compiler/qnx650_463/host/win32/x86/usr/bin/../lib/gcc/powerpc-unknown-nto-qnx6.5.0/4.6.3\libgcc.a(_usi_to_sf.o)
                                0x1bc (size before relaxing)
 .debug_str     0x000065a3       0x30 c:/program files/dspace rcphil 2016-a/compiler/qnx650_463/host/win32/x86/usr/bin/../lib/gcc/powerpc-unknown-nto-qnx6.5.0/4.6.3\libgcc.a(_pack_df.o)
                                0x1da (size before relaxing)
 .debug_str     0x000065d3        0xb c:/program files/dspace rcphil 2016-a/compiler/qnx650_463/host/win32/x86/usr/bin/../lib/gcc/powerpc-unknown-nto-qnx6.5.0/4.6.3\libgcc.a(_unpack_df.o)
                                0x1bc (size before relaxing)
 .debug_str     0x000065de       0x12 c:/program files/dspace rcphil 2016-a/compiler/qnx650_463/host/win32/x86/usr/bin/../lib/gcc/powerpc-unknown-nto-qnx6.5.0/4.6.3\libgcc.a(_addsub_df.o)
                                0x24b (size before relaxing)
 .debug_str     0x000065f0       0x33 c:/program files/dspace rcphil 2016-a/compiler/qnx650_463/host/win32/x86/usr/bin/../lib/gcc/powerpc-unknown-nto-qnx6.5.0/4.6.3\libgcc.a(_mul_df.o)
                                0x21d (size before relaxing)
 .debug_str     0x00006623        0x9 c:/program files/dspace rcphil 2016-a/compiler/qnx650_463/host/win32/x86/usr/bin/../lib/gcc/powerpc-unknown-nto-qnx6.5.0/4.6.3\libgcc.a(_div_df.o)
                                0x20d (size before relaxing)
 .debug_str     0x0000662c       0x10 c:/program files/dspace rcphil 2016-a/compiler/qnx650_463/host/win32/x86/usr/bin/../lib/gcc/powerpc-unknown-nto-qnx6.5.0/4.6.3\libgcc.a(_fpcmp_parts_df.o)
                                0x19f (size before relaxing)
 .debug_str     0x0000663c        0x9 c:/program files/dspace rcphil 2016-a/compiler/qnx650_463/host/win32/x86/usr/bin/../lib/gcc/powerpc-unknown-nto-qnx6.5.0/4.6.3\libgcc.a(_compare_df.o)
                                0x1ce (size before relaxing)
 .debug_str     0x00006645        0x8 c:/program files/dspace rcphil 2016-a/compiler/qnx650_463/host/win32/x86/usr/bin/../lib/gcc/powerpc-unknown-nto-qnx6.5.0/4.6.3\libgcc.a(_eq_df.o)
                                0x1d3 (size before relaxing)
 .debug_str     0x0000664d        0x8 c:/program files/dspace rcphil 2016-a/compiler/qnx650_463/host/win32/x86/usr/bin/../lib/gcc/powerpc-unknown-nto-qnx6.5.0/4.6.3\libgcc.a(_ne_df.o)
                                0x1d3 (size before relaxing)
 .debug_str     0x00006655        0x8 c:/program files/dspace rcphil 2016-a/compiler/qnx650_463/host/win32/x86/usr/bin/../lib/gcc/powerpc-unknown-nto-qnx6.5.0/4.6.3\libgcc.a(_gt_df.o)
                                0x1d3 (size before relaxing)
 .debug_str     0x0000665d        0x8 c:/program files/dspace rcphil 2016-a/compiler/qnx650_463/host/win32/x86/usr/bin/../lib/gcc/powerpc-unknown-nto-qnx6.5.0/4.6.3\libgcc.a(_ge_df.o)
                                0x1d3 (size before relaxing)
 .debug_str     0x00006665        0x8 c:/program files/dspace rcphil 2016-a/compiler/qnx650_463/host/win32/x86/usr/bin/../lib/gcc/powerpc-unknown-nto-qnx6.5.0/4.6.3\libgcc.a(_lt_df.o)
                                0x1d3 (size before relaxing)
 .debug_str     0x0000666d        0x8 c:/program files/dspace rcphil 2016-a/compiler/qnx650_463/host/win32/x86/usr/bin/../lib/gcc/powerpc-unknown-nto-qnx6.5.0/4.6.3\libgcc.a(_le_df.o)
                                0x1d3 (size before relaxing)
 .debug_str     0x00006675        0xb c:/program files/dspace rcphil 2016-a/compiler/qnx650_463/host/win32/x86/usr/bin/../lib/gcc/powerpc-unknown-nto-qnx6.5.0/4.6.3\libgcc.a(_unord_df.o)
                                0x1d6 (size before relaxing)
 .debug_str     0x00006680        0xc c:/program files/dspace rcphil 2016-a/compiler/qnx650_463/host/win32/x86/usr/bin/../lib/gcc/powerpc-unknown-nto-qnx6.5.0/4.6.3\libgcc.a(_si_to_df.o)
                                0x1c0 (size before relaxing)
 .debug_str     0x0000668c        0xa c:/program files/dspace rcphil 2016-a/compiler/qnx650_463/host/win32/x86/usr/bin/../lib/gcc/powerpc-unknown-nto-qnx6.5.0/4.6.3\libgcc.a(_df_to_si.o)
                                0x1db (size before relaxing)
 .debug_str     0x00006696        0x9 c:/program files/dspace rcphil 2016-a/compiler/qnx650_463/host/win32/x86/usr/bin/../lib/gcc/powerpc-unknown-nto-qnx6.5.0/4.6.3\libgcc.a(_negate_df.o)
                                0x1ca (size before relaxing)
 .debug_str     0x0000669f        0xa c:/program files/dspace rcphil 2016-a/compiler/qnx650_463/host/win32/x86/usr/bin/../lib/gcc/powerpc-unknown-nto-qnx6.5.0/4.6.3\libgcc.a(_make_df.o)
                                0x192 (size before relaxing)
 .debug_str     0x000066a9       0x14 c:/program files/dspace rcphil 2016-a/compiler/qnx650_463/host/win32/x86/usr/bin/../lib/gcc/powerpc-unknown-nto-qnx6.5.0/4.6.3\libgcc.a(_df_to_sf.o)
                                0x1d2 (size before relaxing)
 .debug_str     0x00000000     0x5fb0 c:/program files/dspace rcphil 2016-a/compiler/qnx650_463/host/win32/x86/usr/bin/../lib/gcc/powerpc-unknown-nto-qnx6.5.0/4.6.3\libgcc.a(_thenan_df.o)
 .debug_str     0x00000000      0x17c c:/program files/dspace rcphil 2016-a/compiler/qnx650_463/host/win32/x86/usr/bin/../lib/gcc/powerpc-unknown-nto-qnx6.5.0/4.6.3\libgcc.a(_df_to_usi.o)
 .debug_str     0x000066bd        0xe c:/program files/dspace rcphil 2016-a/compiler/qnx650_463/host/win32/x86/usr/bin/../lib/gcc/powerpc-unknown-nto-qnx6.5.0/4.6.3\libgcc.a(_usi_to_df.o)
                                0x1bc (size before relaxing)
 .debug_str     0x000066cb     0x14fa c:/program files/dspace rcphil 2016-a/compiler/qnx650_463/host/win32/x86/usr/bin/../lib/gcc/powerpc-unknown-nto-qnx6.5.0/4.6.3\libgcc.a(unwind-dw2.o)
                               0x74d9 (size before relaxing)
 .debug_str     0x00007bc5      0x43d c:/program files/dspace rcphil 2016-a/compiler/qnx650_463/host/win32/x86/usr/bin/../lib/gcc/powerpc-unknown-nto-qnx6.5.0/4.6.3\libgcc.a(unwind-dw2-fde.o)
                               0x6516 (size before relaxing)
 .debug_str     0x00008002       0x25 c:/program files/dspace rcphil 2016-a/compiler/qnx650_463/host/win32/x86/usr/bin/../lib/gcc/powerpc-unknown-nto-qnx6.5.0/4.6.3\libgcc.a(unwind-sjlj.o)
                                0x110 (size before relaxing)
 .debug_str     0x00008027      0x118 c:/program files/dspace rcphil 2016-a/compiler/qnx650_463/host/win32/x86/usr/bin/../lib/gcc/powerpc-unknown-nto-qnx6.5.0/4.6.3\libgcc.a(unwind-c.o)
                                0x468 (size before relaxing)
 .debug_str     0x0000813f      0x13b c:/program files/dspace rcphil 2016-a/compiler/qnx650_463/host/win32/x86/usr/bin/../lib/gcc/powerpc-unknown-nto-qnx6.5.0/4.6.3\libgcc.a(emutls.o)
                               0x6154 (size before relaxing)

.debug_loc      0x00000000     0xe7d1
 *(.debug_loc)
 .debug_loc     0x00000000       0x43 c:/program files/dspace rcphil 2016-a/compiler/qnx650_463/host/win32/x86/usr/bin/../lib/gcc/powerpc-unknown-nto-qnx6.5.0/4.6.3\libgcc.a(_muldi3.o)
 .debug_loc     0x00000043       0x18 c:/program files/dspace rcphil 2016-a/compiler/qnx650_463/host/win32/x86/usr/bin/../lib/gcc/powerpc-unknown-nto-qnx6.5.0/4.6.3\libgcc.a(_negdi2.o)
 .debug_loc     0x0000005b       0x87 c:/program files/dspace rcphil 2016-a/compiler/qnx650_463/host/win32/x86/usr/bin/../lib/gcc/powerpc-unknown-nto-qnx6.5.0/4.6.3\libgcc.a(_lshrdi3.o)
 .debug_loc     0x000000e2       0x87 c:/program files/dspace rcphil 2016-a/compiler/qnx650_463/host/win32/x86/usr/bin/../lib/gcc/powerpc-unknown-nto-qnx6.5.0/4.6.3\libgcc.a(_ashldi3.o)
 .debug_loc     0x00000169       0x87 c:/program files/dspace rcphil 2016-a/compiler/qnx650_463/host/win32/x86/usr/bin/../lib/gcc/powerpc-unknown-nto-qnx6.5.0/4.6.3\libgcc.a(_ashrdi3.o)
 .debug_loc     0x000001f0       0x18 c:/program files/dspace rcphil 2016-a/compiler/qnx650_463/host/win32/x86/usr/bin/../lib/gcc/powerpc-unknown-nto-qnx6.5.0/4.6.3\libgcc.a(_cmpdi2.o)
 .debug_loc     0x00000208       0x18 c:/program files/dspace rcphil 2016-a/compiler/qnx650_463/host/win32/x86/usr/bin/../lib/gcc/powerpc-unknown-nto-qnx6.5.0/4.6.3\libgcc.a(_ucmpdi2.o)
 .debug_loc     0x00000220       0xa6 c:/program files/dspace rcphil 2016-a/compiler/qnx650_463/host/win32/x86/usr/bin/../lib/gcc/powerpc-unknown-nto-qnx6.5.0/4.6.3\libgcc.a(_absvsi2.o)
 .debug_loc     0x000002c6       0x78 c:/program files/dspace rcphil 2016-a/compiler/qnx650_463/host/win32/x86/usr/bin/../lib/gcc/powerpc-unknown-nto-qnx6.5.0/4.6.3\libgcc.a(_absvdi2.o)
 .debug_loc     0x0000033e       0x7c c:/program files/dspace rcphil 2016-a/compiler/qnx650_463/host/win32/x86/usr/bin/../lib/gcc/powerpc-unknown-nto-qnx6.5.0/4.6.3\libgcc.a(_addvsi3.o)
 .debug_loc     0x000003ba       0xf0 c:/program files/dspace rcphil 2016-a/compiler/qnx650_463/host/win32/x86/usr/bin/../lib/gcc/powerpc-unknown-nto-qnx6.5.0/4.6.3\libgcc.a(_addvdi3.o)
 .debug_loc     0x000004aa       0x7c c:/program files/dspace rcphil 2016-a/compiler/qnx650_463/host/win32/x86/usr/bin/../lib/gcc/powerpc-unknown-nto-qnx6.5.0/4.6.3\libgcc.a(_subvsi3.o)
 .debug_loc     0x00000526       0xf0 c:/program files/dspace rcphil 2016-a/compiler/qnx650_463/host/win32/x86/usr/bin/../lib/gcc/powerpc-unknown-nto-qnx6.5.0/4.6.3\libgcc.a(_subvdi3.o)
 .debug_loc     0x00000616       0x69 c:/program files/dspace rcphil 2016-a/compiler/qnx650_463/host/win32/x86/usr/bin/../lib/gcc/powerpc-unknown-nto-qnx6.5.0/4.6.3\libgcc.a(_mulvsi3.o)
 .debug_loc     0x0000067f      0x320 c:/program files/dspace rcphil 2016-a/compiler/qnx650_463/host/win32/x86/usr/bin/../lib/gcc/powerpc-unknown-nto-qnx6.5.0/4.6.3\libgcc.a(_mulvdi3.o)
 .debug_loc     0x0000099f       0x6c c:/program files/dspace rcphil 2016-a/compiler/qnx650_463/host/win32/x86/usr/bin/../lib/gcc/powerpc-unknown-nto-qnx6.5.0/4.6.3\libgcc.a(_negvsi2.o)
 .debug_loc     0x00000a0b       0x68 c:/program files/dspace rcphil 2016-a/compiler/qnx650_463/host/win32/x86/usr/bin/../lib/gcc/powerpc-unknown-nto-qnx6.5.0/4.6.3\libgcc.a(_negvdi2.o)
 .debug_loc     0x00000a73       0x48 c:/program files/dspace rcphil 2016-a/compiler/qnx650_463/host/win32/x86/usr/bin/../lib/gcc/powerpc-unknown-nto-qnx6.5.0/4.6.3\libgcc.a(_ffssi2.o)
 .debug_loc     0x00000abb      0x117 c:/program files/dspace rcphil 2016-a/compiler/qnx650_463/host/win32/x86/usr/bin/../lib/gcc/powerpc-unknown-nto-qnx6.5.0/4.6.3\libgcc.a(_ffsdi2.o)
 .debug_loc     0x00000bd2       0x13 c:/program files/dspace rcphil 2016-a/compiler/qnx650_463/host/win32/x86/usr/bin/../lib/gcc/powerpc-unknown-nto-qnx6.5.0/4.6.3\libgcc.a(_clzsi2.o)
 .debug_loc     0x00000be5       0x6d c:/program files/dspace rcphil 2016-a/compiler/qnx650_463/host/win32/x86/usr/bin/../lib/gcc/powerpc-unknown-nto-qnx6.5.0/4.6.3\libgcc.a(_clzdi2.o)
 .debug_loc     0x00000c52       0x56 c:/program files/dspace rcphil 2016-a/compiler/qnx650_463/host/win32/x86/usr/bin/../lib/gcc/powerpc-unknown-nto-qnx6.5.0/4.6.3\libgcc.a(_ctzsi2.o)
 .debug_loc     0x00000ca8       0xd1 c:/program files/dspace rcphil 2016-a/compiler/qnx650_463/host/win32/x86/usr/bin/../lib/gcc/powerpc-unknown-nto-qnx6.5.0/4.6.3\libgcc.a(_ctzdi2.o)
 .debug_loc     0x00000d79       0x51 c:/program files/dspace rcphil 2016-a/compiler/qnx650_463/host/win32/x86/usr/bin/../lib/gcc/powerpc-unknown-nto-qnx6.5.0/4.6.3\libgcc.a(_popcountsi2.o)
 .debug_loc     0x00000dca       0x6c c:/program files/dspace rcphil 2016-a/compiler/qnx650_463/host/win32/x86/usr/bin/../lib/gcc/powerpc-unknown-nto-qnx6.5.0/4.6.3\libgcc.a(_popcountdi2.o)
 .debug_loc     0x00000e36       0x38 c:/program files/dspace rcphil 2016-a/compiler/qnx650_463/host/win32/x86/usr/bin/../lib/gcc/powerpc-unknown-nto-qnx6.5.0/4.6.3\libgcc.a(_paritysi2.o)
 .debug_loc     0x00000e6e       0x50 c:/program files/dspace rcphil 2016-a/compiler/qnx650_463/host/win32/x86/usr/bin/../lib/gcc/powerpc-unknown-nto-qnx6.5.0/4.6.3\libgcc.a(_paritydi2.o)
 .debug_loc     0x00000ebe       0x61 c:/program files/dspace rcphil 2016-a/compiler/qnx650_463/host/win32/x86/usr/bin/../lib/gcc/powerpc-unknown-nto-qnx6.5.0/4.6.3\libgcc.a(_powisf2.o)
 .debug_loc     0x00000f1f       0x61 c:/program files/dspace rcphil 2016-a/compiler/qnx650_463/host/win32/x86/usr/bin/../lib/gcc/powerpc-unknown-nto-qnx6.5.0/4.6.3\libgcc.a(_powidf2.o)
 .debug_loc     0x00000f80      0x4d8 c:/program files/dspace rcphil 2016-a/compiler/qnx650_463/host/win32/x86/usr/bin/../lib/gcc/powerpc-unknown-nto-qnx6.5.0/4.6.3\libgcc.a(_mulsc3.o)
 .debug_loc     0x00001458      0x4dd c:/program files/dspace rcphil 2016-a/compiler/qnx650_463/host/win32/x86/usr/bin/../lib/gcc/powerpc-unknown-nto-qnx6.5.0/4.6.3\libgcc.a(_muldc3.o)
 .debug_loc     0x00001935      0x242 c:/program files/dspace rcphil 2016-a/compiler/qnx650_463/host/win32/x86/usr/bin/../lib/gcc/powerpc-unknown-nto-qnx6.5.0/4.6.3\libgcc.a(_divsc3.o)
 .debug_loc     0x00001b77      0x22a c:/program files/dspace rcphil 2016-a/compiler/qnx650_463/host/win32/x86/usr/bin/../lib/gcc/powerpc-unknown-nto-qnx6.5.0/4.6.3\libgcc.a(_divdc3.o)
 .debug_loc     0x00001da1       0x13 c:/program files/dspace rcphil 2016-a/compiler/qnx650_463/host/win32/x86/usr/bin/../lib/gcc/powerpc-unknown-nto-qnx6.5.0/4.6.3\libgcc.a(_bswapsi2.o)
 .debug_loc     0x00001db4       0x18 c:/program files/dspace rcphil 2016-a/compiler/qnx650_463/host/win32/x86/usr/bin/../lib/gcc/powerpc-unknown-nto-qnx6.5.0/4.6.3\libgcc.a(_bswapdi2.o)
 .debug_loc     0x00001dcc       0x64 c:/program files/dspace rcphil 2016-a/compiler/qnx650_463/host/win32/x86/usr/bin/../lib/gcc/powerpc-unknown-nto-qnx6.5.0/4.6.3\libgcc.a(_fixunssfsi.o)
 .debug_loc     0x00001e30       0x64 c:/program files/dspace rcphil 2016-a/compiler/qnx650_463/host/win32/x86/usr/bin/../lib/gcc/powerpc-unknown-nto-qnx6.5.0/4.6.3\libgcc.a(_fixunsdfsi.o)
 .debug_loc     0x00001e94       0x64 c:/program files/dspace rcphil 2016-a/compiler/qnx650_463/host/win32/x86/usr/bin/../lib/gcc/powerpc-unknown-nto-qnx6.5.0/4.6.3\libgcc.a(_fixsfdi.o)
 .debug_loc     0x00001ef8       0x64 c:/program files/dspace rcphil 2016-a/compiler/qnx650_463/host/win32/x86/usr/bin/../lib/gcc/powerpc-unknown-nto-qnx6.5.0/4.6.3\libgcc.a(_fixdfdi.o)
 .debug_loc     0x00001f5c       0x8e c:/program files/dspace rcphil 2016-a/compiler/qnx650_463/host/win32/x86/usr/bin/../lib/gcc/powerpc-unknown-nto-qnx6.5.0/4.6.3\libgcc.a(_fixunssfdi.o)
 .debug_loc     0x00001fea       0x8e c:/program files/dspace rcphil 2016-a/compiler/qnx650_463/host/win32/x86/usr/bin/../lib/gcc/powerpc-unknown-nto-qnx6.5.0/4.6.3\libgcc.a(_fixunsdfdi.o)
 .debug_loc     0x00002078       0x70 c:/program files/dspace rcphil 2016-a/compiler/qnx650_463/host/win32/x86/usr/bin/../lib/gcc/powerpc-unknown-nto-qnx6.5.0/4.6.3\libgcc.a(_floatdisf.o)
 .debug_loc     0x000020e8       0x44 c:/program files/dspace rcphil 2016-a/compiler/qnx650_463/host/win32/x86/usr/bin/../lib/gcc/powerpc-unknown-nto-qnx6.5.0/4.6.3\libgcc.a(_floatdidf.o)
 .debug_loc     0x0000212c       0x54 c:/program files/dspace rcphil 2016-a/compiler/qnx650_463/host/win32/x86/usr/bin/../lib/gcc/powerpc-unknown-nto-qnx6.5.0/4.6.3\libgcc.a(_floatundisf.o)
 .debug_loc     0x00002180       0x2c c:/program files/dspace rcphil 2016-a/compiler/qnx650_463/host/win32/x86/usr/bin/../lib/gcc/powerpc-unknown-nto-qnx6.5.0/4.6.3\libgcc.a(_floatundidf.o)
 .debug_loc     0x000021ac       0x98 c:/program files/dspace rcphil 2016-a/compiler/qnx650_463/host/win32/x86/usr/bin/../lib/gcc/powerpc-unknown-nto-qnx6.5.0/4.6.3\libgcc.a(_eprintf.o)
 .debug_loc     0x00002244       0x8f c:/program files/dspace rcphil 2016-a/compiler/qnx650_463/host/win32/x86/usr/bin/../lib/gcc/powerpc-unknown-nto-qnx6.5.0/4.6.3\libgcc.a(__gcc_bcmp.o)
 .debug_loc     0x000022d3      0x91d c:/program files/dspace rcphil 2016-a/compiler/qnx650_463/host/win32/x86/usr/bin/../lib/gcc/powerpc-unknown-nto-qnx6.5.0/4.6.3\libgcc.a(_divdi3.o)
 .debug_loc     0x00002bf0      0x916 c:/program files/dspace rcphil 2016-a/compiler/qnx650_463/host/win32/x86/usr/bin/../lib/gcc/powerpc-unknown-nto-qnx6.5.0/4.6.3\libgcc.a(_moddi3.o)
 .debug_loc     0x00003506      0x821 c:/program files/dspace rcphil 2016-a/compiler/qnx650_463/host/win32/x86/usr/bin/../lib/gcc/powerpc-unknown-nto-qnx6.5.0/4.6.3\libgcc.a(_udivdi3.o)
 .debug_loc     0x00003d27      0x858 c:/program files/dspace rcphil 2016-a/compiler/qnx650_463/host/win32/x86/usr/bin/../lib/gcc/powerpc-unknown-nto-qnx6.5.0/4.6.3\libgcc.a(_umoddi3.o)
 .debug_loc     0x0000457f       0x13 c:/program files/dspace rcphil 2016-a/compiler/qnx650_463/host/win32/x86/usr/bin/../lib/gcc/powerpc-unknown-nto-qnx6.5.0/4.6.3\libgcc.a(_udiv_w_sdiv.o)
 .debug_loc     0x00004592      0x9ec c:/program files/dspace rcphil 2016-a/compiler/qnx650_463/host/win32/x86/usr/bin/../lib/gcc/powerpc-unknown-nto-qnx6.5.0/4.6.3\libgcc.a(_udivmoddi4.o)
 .debug_loc     0x00004f7e      0x1e2 c:/program files/dspace rcphil 2016-a/compiler/qnx650_463/host/win32/x86/usr/bin/../lib/gcc/powerpc-unknown-nto-qnx6.5.0/4.6.3\libgcc.a(_pack_sf.o)
 .debug_loc     0x00005160       0x8a c:/program files/dspace rcphil 2016-a/compiler/qnx650_463/host/win32/x86/usr/bin/../lib/gcc/powerpc-unknown-nto-qnx6.5.0/4.6.3\libgcc.a(_unpack_sf.o)
 .debug_loc     0x000051ea      0x32a c:/program files/dspace rcphil 2016-a/compiler/qnx650_463/host/win32/x86/usr/bin/../lib/gcc/powerpc-unknown-nto-qnx6.5.0/4.6.3\libgcc.a(_addsub_sf.o)
 .debug_loc     0x00005514      0x1ec c:/program files/dspace rcphil 2016-a/compiler/qnx650_463/host/win32/x86/usr/bin/../lib/gcc/powerpc-unknown-nto-qnx6.5.0/4.6.3\libgcc.a(_mul_sf.o)
 .debug_loc     0x00005700      0x247 c:/program files/dspace rcphil 2016-a/compiler/qnx650_463/host/win32/x86/usr/bin/../lib/gcc/powerpc-unknown-nto-qnx6.5.0/4.6.3\libgcc.a(_div_sf.o)
 .debug_loc     0x00005947       0x3f c:/program files/dspace rcphil 2016-a/compiler/qnx650_463/host/win32/x86/usr/bin/../lib/gcc/powerpc-unknown-nto-qnx6.5.0/4.6.3\libgcc.a(_fpcmp_parts_sf.o)
 .debug_loc     0x00005986       0x55 c:/program files/dspace rcphil 2016-a/compiler/qnx650_463/host/win32/x86/usr/bin/../lib/gcc/powerpc-unknown-nto-qnx6.5.0/4.6.3\libgcc.a(_compare_sf.o)
 .debug_loc     0x000059db       0x55 c:/program files/dspace rcphil 2016-a/compiler/qnx650_463/host/win32/x86/usr/bin/../lib/gcc/powerpc-unknown-nto-qnx6.5.0/4.6.3\libgcc.a(_eq_sf.o)
 .debug_loc     0x00005a30       0x55 c:/program files/dspace rcphil 2016-a/compiler/qnx650_463/host/win32/x86/usr/bin/../lib/gcc/powerpc-unknown-nto-qnx6.5.0/4.6.3\libgcc.a(_ne_sf.o)
 .debug_loc     0x00005a85       0x55 c:/program files/dspace rcphil 2016-a/compiler/qnx650_463/host/win32/x86/usr/bin/../lib/gcc/powerpc-unknown-nto-qnx6.5.0/4.6.3\libgcc.a(_gt_sf.o)
 .debug_loc     0x00005ada       0x55 c:/program files/dspace rcphil 2016-a/compiler/qnx650_463/host/win32/x86/usr/bin/../lib/gcc/powerpc-unknown-nto-qnx6.5.0/4.6.3\libgcc.a(_ge_sf.o)
 .debug_loc     0x00005b2f       0x55 c:/program files/dspace rcphil 2016-a/compiler/qnx650_463/host/win32/x86/usr/bin/../lib/gcc/powerpc-unknown-nto-qnx6.5.0/4.6.3\libgcc.a(_lt_sf.o)
 .debug_loc     0x00005b84       0x55 c:/program files/dspace rcphil 2016-a/compiler/qnx650_463/host/win32/x86/usr/bin/../lib/gcc/powerpc-unknown-nto-qnx6.5.0/4.6.3\libgcc.a(_le_sf.o)
 .debug_loc     0x00005bd9       0x55 c:/program files/dspace rcphil 2016-a/compiler/qnx650_463/host/win32/x86/usr/bin/../lib/gcc/powerpc-unknown-nto-qnx6.5.0/4.6.3\libgcc.a(_unord_sf.o)
 .debug_loc     0x00005c2e       0xbf c:/program files/dspace rcphil 2016-a/compiler/qnx650_463/host/win32/x86/usr/bin/../lib/gcc/powerpc-unknown-nto-qnx6.5.0/4.6.3\libgcc.a(_si_to_sf.o)
 .debug_loc     0x00005ced       0x85 c:/program files/dspace rcphil 2016-a/compiler/qnx650_463/host/win32/x86/usr/bin/../lib/gcc/powerpc-unknown-nto-qnx6.5.0/4.6.3\libgcc.a(_sf_to_si.o)
 .debug_loc     0x00005d72       0x40 c:/program files/dspace rcphil 2016-a/compiler/qnx650_463/host/win32/x86/usr/bin/../lib/gcc/powerpc-unknown-nto-qnx6.5.0/4.6.3\libgcc.a(_negate_sf.o)
 .debug_loc     0x00005db2       0x84 c:/program files/dspace rcphil 2016-a/compiler/qnx650_463/host/win32/x86/usr/bin/../lib/gcc/powerpc-unknown-nto-qnx6.5.0/4.6.3\libgcc.a(_make_sf.o)
 .debug_loc     0x00005e36       0x40 c:/program files/dspace rcphil 2016-a/compiler/qnx650_463/host/win32/x86/usr/bin/../lib/gcc/powerpc-unknown-nto-qnx6.5.0/4.6.3\libgcc.a(_sf_to_df.o)
 .debug_loc     0x00005e76      0x13d c:/program files/dspace rcphil 2016-a/compiler/qnx650_463/host/win32/x86/usr/bin/../lib/gcc/powerpc-unknown-nto-qnx6.5.0/4.6.3\libgcc.a(_usi_to_sf.o)
 .debug_loc     0x00005fb3      0x16a c:/program files/dspace rcphil 2016-a/compiler/qnx650_463/host/win32/x86/usr/bin/../lib/gcc/powerpc-unknown-nto-qnx6.5.0/4.6.3\libgcc.a(_pack_df.o)
 .debug_loc     0x0000611d       0x92 c:/program files/dspace rcphil 2016-a/compiler/qnx650_463/host/win32/x86/usr/bin/../lib/gcc/powerpc-unknown-nto-qnx6.5.0/4.6.3\libgcc.a(_unpack_df.o)
 .debug_loc     0x000061af      0x3cf c:/program files/dspace rcphil 2016-a/compiler/qnx650_463/host/win32/x86/usr/bin/../lib/gcc/powerpc-unknown-nto-qnx6.5.0/4.6.3\libgcc.a(_addsub_df.o)
 .debug_loc     0x0000657e      0x4a5 c:/program files/dspace rcphil 2016-a/compiler/qnx650_463/host/win32/x86/usr/bin/../lib/gcc/powerpc-unknown-nto-qnx6.5.0/4.6.3\libgcc.a(_mul_df.o)
 .debug_loc     0x00006a23      0x2f1 c:/program files/dspace rcphil 2016-a/compiler/qnx650_463/host/win32/x86/usr/bin/../lib/gcc/powerpc-unknown-nto-qnx6.5.0/4.6.3\libgcc.a(_div_df.o)
 .debug_loc     0x00006d14       0x34 c:/program files/dspace rcphil 2016-a/compiler/qnx650_463/host/win32/x86/usr/bin/../lib/gcc/powerpc-unknown-nto-qnx6.5.0/4.6.3\libgcc.a(_fpcmp_parts_df.o)
 .debug_loc     0x00006d48       0x55 c:/program files/dspace rcphil 2016-a/compiler/qnx650_463/host/win32/x86/usr/bin/../lib/gcc/powerpc-unknown-nto-qnx6.5.0/4.6.3\libgcc.a(_compare_df.o)
 .debug_loc     0x00006d9d       0x55 c:/program files/dspace rcphil 2016-a/compiler/qnx650_463/host/win32/x86/usr/bin/../lib/gcc/powerpc-unknown-nto-qnx6.5.0/4.6.3\libgcc.a(_eq_df.o)
 .debug_loc     0x00006df2       0x55 c:/program files/dspace rcphil 2016-a/compiler/qnx650_463/host/win32/x86/usr/bin/../lib/gcc/powerpc-unknown-nto-qnx6.5.0/4.6.3\libgcc.a(_ne_df.o)
 .debug_loc     0x00006e47       0x55 c:/program files/dspace rcphil 2016-a/compiler/qnx650_463/host/win32/x86/usr/bin/../lib/gcc/powerpc-unknown-nto-qnx6.5.0/4.6.3\libgcc.a(_gt_df.o)
 .debug_loc     0x00006e9c       0x55 c:/program files/dspace rcphil 2016-a/compiler/qnx650_463/host/win32/x86/usr/bin/../lib/gcc/powerpc-unknown-nto-qnx6.5.0/4.6.3\libgcc.a(_ge_df.o)
 .debug_loc     0x00006ef1       0x55 c:/program files/dspace rcphil 2016-a/compiler/qnx650_463/host/win32/x86/usr/bin/../lib/gcc/powerpc-unknown-nto-qnx6.5.0/4.6.3\libgcc.a(_lt_df.o)
 .debug_loc     0x00006f46       0x55 c:/program files/dspace rcphil 2016-a/compiler/qnx650_463/host/win32/x86/usr/bin/../lib/gcc/powerpc-unknown-nto-qnx6.5.0/4.6.3\libgcc.a(_le_df.o)
 .debug_loc     0x00006f9b       0x55 c:/program files/dspace rcphil 2016-a/compiler/qnx650_463/host/win32/x86/usr/bin/../lib/gcc/powerpc-unknown-nto-qnx6.5.0/4.6.3\libgcc.a(_unord_df.o)
 .debug_loc     0x00006ff0      0x111 c:/program files/dspace rcphil 2016-a/compiler/qnx650_463/host/win32/x86/usr/bin/../lib/gcc/powerpc-unknown-nto-qnx6.5.0/4.6.3\libgcc.a(_si_to_df.o)
 .debug_loc     0x00007101       0x77 c:/program files/dspace rcphil 2016-a/compiler/qnx650_463/host/win32/x86/usr/bin/../lib/gcc/powerpc-unknown-nto-qnx6.5.0/4.6.3\libgcc.a(_df_to_si.o)
 .debug_loc     0x00007178       0x40 c:/program files/dspace rcphil 2016-a/compiler/qnx650_463/host/win32/x86/usr/bin/../lib/gcc/powerpc-unknown-nto-qnx6.5.0/4.6.3\libgcc.a(_negate_df.o)
 .debug_loc     0x000071b8       0x89 c:/program files/dspace rcphil 2016-a/compiler/qnx650_463/host/win32/x86/usr/bin/../lib/gcc/powerpc-unknown-nto-qnx6.5.0/4.6.3\libgcc.a(_make_df.o)
 .debug_loc     0x00007241       0x53 c:/program files/dspace rcphil 2016-a/compiler/qnx650_463/host/win32/x86/usr/bin/../lib/gcc/powerpc-unknown-nto-qnx6.5.0/4.6.3\libgcc.a(_df_to_sf.o)
 .debug_loc     0x00007294      0x144 c:/program files/dspace rcphil 2016-a/compiler/qnx650_463/host/win32/x86/usr/bin/../lib/gcc/powerpc-unknown-nto-qnx6.5.0/4.6.3\libgcc.a(_usi_to_df.o)
 .debug_loc     0x000073d8     0x41db c:/program files/dspace rcphil 2016-a/compiler/qnx650_463/host/win32/x86/usr/bin/../lib/gcc/powerpc-unknown-nto-qnx6.5.0/4.6.3\libgcc.a(unwind-dw2.o)
 .debug_loc     0x0000b5b3     0x1ff2 c:/program files/dspace rcphil 2016-a/compiler/qnx650_463/host/win32/x86/usr/bin/../lib/gcc/powerpc-unknown-nto-qnx6.5.0/4.6.3\libgcc.a(unwind-dw2-fde.o)
 .debug_loc     0x0000d5a5      0xe1b c:/program files/dspace rcphil 2016-a/compiler/qnx650_463/host/win32/x86/usr/bin/../lib/gcc/powerpc-unknown-nto-qnx6.5.0/4.6.3\libgcc.a(unwind-c.o)
 .debug_loc     0x0000e3c0      0x411 c:/program files/dspace rcphil 2016-a/compiler/qnx650_463/host/win32/x86/usr/bin/../lib/gcc/powerpc-unknown-nto-qnx6.5.0/4.6.3\libgcc.a(emutls.o)

.debug_macinfo
 *(.debug_macinfo)

.debug_weaknames
 *(.debug_weaknames)

.debug_funcnames
 *(.debug_funcnames)

.debug_typenames
 *(.debug_typenames)

.debug_varnames
 *(.debug_varnames)

.debug_pubtypes
 *(.debug_pubtypes)

.debug_ranges   0x00000000     0x1940
 *(.debug_ranges)
 .debug_ranges  0x00000000       0x50 c:/program files/dspace rcphil 2016-a/compiler/qnx650_463/host/win32/x86/usr/bin/../lib/gcc/powerpc-unknown-nto-qnx6.5.0/4.6.3\libgcc.a(_mulvdi3.o)
 .debug_ranges  0x00000050       0x20 c:/program files/dspace rcphil 2016-a/compiler/qnx650_463/host/win32/x86/usr/bin/../lib/gcc/powerpc-unknown-nto-qnx6.5.0/4.6.3\libgcc.a(_ffsdi2.o)
 .debug_ranges  0x00000070       0x18 c:/program files/dspace rcphil 2016-a/compiler/qnx650_463/host/win32/x86/usr/bin/../lib/gcc/powerpc-unknown-nto-qnx6.5.0/4.6.3\libgcc.a(_ctzsi2.o)
 .debug_ranges  0x00000088       0x18 c:/program files/dspace rcphil 2016-a/compiler/qnx650_463/host/win32/x86/usr/bin/../lib/gcc/powerpc-unknown-nto-qnx6.5.0/4.6.3\libgcc.a(_ctzdi2.o)
 .debug_ranges  0x000000a0       0x18 c:/program files/dspace rcphil 2016-a/compiler/qnx650_463/host/win32/x86/usr/bin/../lib/gcc/powerpc-unknown-nto-qnx6.5.0/4.6.3\libgcc.a(__gcc_bcmp.o)
 .debug_ranges  0x000000b8       0xc8 c:/program files/dspace rcphil 2016-a/compiler/qnx650_463/host/win32/x86/usr/bin/../lib/gcc/powerpc-unknown-nto-qnx6.5.0/4.6.3\libgcc.a(_divdi3.o)
 .debug_ranges  0x00000180       0xe0 c:/program files/dspace rcphil 2016-a/compiler/qnx650_463/host/win32/x86/usr/bin/../lib/gcc/powerpc-unknown-nto-qnx6.5.0/4.6.3\libgcc.a(_moddi3.o)
 .debug_ranges  0x00000260       0xf0 c:/program files/dspace rcphil 2016-a/compiler/qnx650_463/host/win32/x86/usr/bin/../lib/gcc/powerpc-unknown-nto-qnx6.5.0/4.6.3\libgcc.a(_udivdi3.o)
 .debug_ranges  0x00000350      0x110 c:/program files/dspace rcphil 2016-a/compiler/qnx650_463/host/win32/x86/usr/bin/../lib/gcc/powerpc-unknown-nto-qnx6.5.0/4.6.3\libgcc.a(_umoddi3.o)
 .debug_ranges  0x00000460       0xa0 c:/program files/dspace rcphil 2016-a/compiler/qnx650_463/host/win32/x86/usr/bin/../lib/gcc/powerpc-unknown-nto-qnx6.5.0/4.6.3\libgcc.a(_udivmoddi4.o)
 .debug_ranges  0x00000500       0x30 c:/program files/dspace rcphil 2016-a/compiler/qnx650_463/host/win32/x86/usr/bin/../lib/gcc/powerpc-unknown-nto-qnx6.5.0/4.6.3\libgcc.a(_addsub_sf.o)
 .debug_ranges  0x00000530       0x78 c:/program files/dspace rcphil 2016-a/compiler/qnx650_463/host/win32/x86/usr/bin/../lib/gcc/powerpc-unknown-nto-qnx6.5.0/4.6.3\libgcc.a(_mul_sf.o)
 .debug_ranges  0x000005a8       0x58 c:/program files/dspace rcphil 2016-a/compiler/qnx650_463/host/win32/x86/usr/bin/../lib/gcc/powerpc-unknown-nto-qnx6.5.0/4.6.3\libgcc.a(_div_sf.o)
 .debug_ranges  0x00000600       0x38 c:/program files/dspace rcphil 2016-a/compiler/qnx650_463/host/win32/x86/usr/bin/../lib/gcc/powerpc-unknown-nto-qnx6.5.0/4.6.3\libgcc.a(_usi_to_sf.o)
 .debug_ranges  0x00000638       0x38 c:/program files/dspace rcphil 2016-a/compiler/qnx650_463/host/win32/x86/usr/bin/../lib/gcc/powerpc-unknown-nto-qnx6.5.0/4.6.3\libgcc.a(_addsub_df.o)
 .debug_ranges  0x00000670       0x80 c:/program files/dspace rcphil 2016-a/compiler/qnx650_463/host/win32/x86/usr/bin/../lib/gcc/powerpc-unknown-nto-qnx6.5.0/4.6.3\libgcc.a(_mul_df.o)
 .debug_ranges  0x000006f0       0x58 c:/program files/dspace rcphil 2016-a/compiler/qnx650_463/host/win32/x86/usr/bin/../lib/gcc/powerpc-unknown-nto-qnx6.5.0/4.6.3\libgcc.a(_div_df.o)
 .debug_ranges  0x00000748       0x40 c:/program files/dspace rcphil 2016-a/compiler/qnx650_463/host/win32/x86/usr/bin/../lib/gcc/powerpc-unknown-nto-qnx6.5.0/4.6.3\libgcc.a(_usi_to_df.o)
 .debug_ranges  0x00000788      0xa80 c:/program files/dspace rcphil 2016-a/compiler/qnx650_463/host/win32/x86/usr/bin/../lib/gcc/powerpc-unknown-nto-qnx6.5.0/4.6.3\libgcc.a(unwind-dw2.o)
 .debug_ranges  0x00001208      0x480 c:/program files/dspace rcphil 2016-a/compiler/qnx650_463/host/win32/x86/usr/bin/../lib/gcc/powerpc-unknown-nto-qnx6.5.0/4.6.3\libgcc.a(unwind-dw2-fde.o)
 .debug_ranges  0x00001688      0x228 c:/program files/dspace rcphil 2016-a/compiler/qnx650_463/host/win32/x86/usr/bin/../lib/gcc/powerpc-unknown-nto-qnx6.5.0/4.6.3\libgcc.a(unwind-c.o)
 .debug_ranges  0x000018b0       0x90 c:/program files/dspace rcphil 2016-a/compiler/qnx650_463/host/win32/x86/usr/bin/../lib/gcc/powerpc-unknown-nto-qnx6.5.0/4.6.3\libgcc.a(emutls.o)

.gnu.attributes
                0x00000000       0x14
 *(.gnu.attributes)
 .gnu.attributes
                0x00000000       0x10 HandFunc.o07
 .gnu.attributes
                0x00000010       0x10 WAMFunc.o07
 .gnu.attributes
                0x00000020       0x10 AVSFunc.o07
 .gnu.attributes
                0x00000030       0x10 HandApp.o07
 .gnu.attributes
                0x00000040       0x10 WAMApp.o07
 .gnu.attributes
                0x00000050       0x10 WAM2App.o07
 .gnu.attributes
                0x00000060       0x10 AVSApp.o07
 .gnu.attributes
                0x00000070       0x10 XYZstageApp.o07
 .gnu.attributes
                0x00000080       0x10 LinkHomoMat.o07
 .gnu.attributes
                0x00000090       0x10 vec3DInProduct.o07
 .gnu.attributes
                0x000000a0       0x10 pmatrix.o07
 .gnu.attributes
                0x000000b0       0x10 homoMat.o07
 .gnu.attributes
                0x000000c0       0x10 Vector.o07
 .gnu.attributes
                0x000000d0       0x12 Predict3D.o07
 .gnu.attributes
                0x000000e2       0x10 throwJnt2armJnt.o07
 .gnu.attributes
                0x000000f2       0x10 handEnc2JntAng.o07
 .gnu.attributes
                0x00000102       0x10 handTraj.o07
 .gnu.attributes
                0x00000112       0x10 XYZstageTraj.o07
 .gnu.attributes
                0x00000122       0x10 XYZstageEnc2JntAng.o07
 .gnu.attributes
                0x00000132       0x10 rtGetInf.o07
 .gnu.attributes
                0x00000142       0x10 rtGetNaN.o07
 .gnu.attributes
                0x00000152       0x10 rt_matrx.o07
 .gnu.attributes
                0x00000162       0x10 rt_nonfinite.o07
 .gnu.attributes
                0x00000172       0x10 rt_printf.o07
 .gnu.attributes
                0x00000182       0x10 rti_sim_engine.o07
 .gnu.attributes
                0x00000192       0x10 rt_sim.o07
 .gnu.attributes
                0x000001a2       0x10 rti_assert.o07
 .gnu.attributes
                0x000001b2       0x14 C:\Program Files\dSPACE RCPHIL 2016-A\DS1007\Lib\libm_fastpow.a(w_pow.o)
 .gnu.attributes
                0x000001c6       0x14 C:\Program Files\dSPACE RCPHIL 2016-A\DS1007\Lib\libm_fastpow.a(e_pow.o)
 .gnu.attributes
                0x000001da       0x14 C:\Program Files\dSPACE RCPHIL 2016-A\DS1007\Lib\libm_fastpow.a(s_scalbn.o)
 .gnu.attributes
                0x000001ee       0x10 c:/program files/dspace rcphil 2016-a/compiler/qnx650_463/host/win32/x86/usr/bin/../lib/gcc/powerpc-unknown-nto-qnx6.5.0/4.6.3\libgcc.a(_powisf2.o)
 .gnu.attributes
                0x000001fe       0x10 c:/program files/dspace rcphil 2016-a/compiler/qnx650_463/host/win32/x86/usr/bin/../lib/gcc/powerpc-unknown-nto-qnx6.5.0/4.6.3\libgcc.a(_powidf2.o)
 .gnu.attributes
                0x0000020e       0x10 c:/program files/dspace rcphil 2016-a/compiler/qnx650_463/host/win32/x86/usr/bin/../lib/gcc/powerpc-unknown-nto-qnx6.5.0/4.6.3\libgcc.a(_mulsc3.o)
 .gnu.attributes
                0x0000021e       0x10 c:/program files/dspace rcphil 2016-a/compiler/qnx650_463/host/win32/x86/usr/bin/../lib/gcc/powerpc-unknown-nto-qnx6.5.0/4.6.3\libgcc.a(_muldc3.o)
 .gnu.attributes
                0x0000022e       0x10 c:/program files/dspace rcphil 2016-a/compiler/qnx650_463/host/win32/x86/usr/bin/../lib/gcc/powerpc-unknown-nto-qnx6.5.0/4.6.3\libgcc.a(_divsc3.o)
 .gnu.attributes
                0x0000023e       0x10 c:/program files/dspace rcphil 2016-a/compiler/qnx650_463/host/win32/x86/usr/bin/../lib/gcc/powerpc-unknown-nto-qnx6.5.0/4.6.3\libgcc.a(_divdc3.o)
 .gnu.attributes
                0x0000024e       0x10 c:/program files/dspace rcphil 2016-a/compiler/qnx650_463/host/win32/x86/usr/bin/../lib/gcc/powerpc-unknown-nto-qnx6.5.0/4.6.3\libgcc.a(_fixunssfsi.o)
 .gnu.attributes
                0x0000025e       0x10 c:/program files/dspace rcphil 2016-a/compiler/qnx650_463/host/win32/x86/usr/bin/../lib/gcc/powerpc-unknown-nto-qnx6.5.0/4.6.3\libgcc.a(_fixunsdfsi.o)
 .gnu.attributes
                0x0000026e       0x10 c:/program files/dspace rcphil 2016-a/compiler/qnx650_463/host/win32/x86/usr/bin/../lib/gcc/powerpc-unknown-nto-qnx6.5.0/4.6.3\libgcc.a(_fixsfdi.o)
 .gnu.attributes
                0x0000027e       0x10 c:/program files/dspace rcphil 2016-a/compiler/qnx650_463/host/win32/x86/usr/bin/../lib/gcc/powerpc-unknown-nto-qnx6.5.0/4.6.3\libgcc.a(_fixdfdi.o)
 .gnu.attributes
                0x0000028e       0x10 c:/program files/dspace rcphil 2016-a/compiler/qnx650_463/host/win32/x86/usr/bin/../lib/gcc/powerpc-unknown-nto-qnx6.5.0/4.6.3\libgcc.a(_fixunssfdi.o)
 .gnu.attributes
                0x0000029e       0x10 c:/program files/dspace rcphil 2016-a/compiler/qnx650_463/host/win32/x86/usr/bin/../lib/gcc/powerpc-unknown-nto-qnx6.5.0/4.6.3\libgcc.a(_fixunsdfdi.o)
 .gnu.attributes
                0x000002ae       0x10 c:/program files/dspace rcphil 2016-a/compiler/qnx650_463/host/win32/x86/usr/bin/../lib/gcc/powerpc-unknown-nto-qnx6.5.0/4.6.3\libgcc.a(_floatdisf.o)
 .gnu.attributes
                0x000002be       0x10 c:/program files/dspace rcphil 2016-a/compiler/qnx650_463/host/win32/x86/usr/bin/../lib/gcc/powerpc-unknown-nto-qnx6.5.0/4.6.3\libgcc.a(_floatdidf.o)
 .gnu.attributes
                0x000002ce       0x10 c:/program files/dspace rcphil 2016-a/compiler/qnx650_463/host/win32/x86/usr/bin/../lib/gcc/powerpc-unknown-nto-qnx6.5.0/4.6.3\libgcc.a(_floatundisf.o)
 .gnu.attributes
                0x000002de       0x10 c:/program files/dspace rcphil 2016-a/compiler/qnx650_463/host/win32/x86/usr/bin/../lib/gcc/powerpc-unknown-nto-qnx6.5.0/4.6.3\libgcc.a(_floatundidf.o)
 .gnu.attributes
                0x000002ee       0x10 c:/program files/dspace rcphil 2016-a/compiler/qnx650_463/host/win32/x86/usr/bin/../lib/gcc/powerpc-unknown-nto-qnx6.5.0/4.6.3\libgcc.a(_pack_sf.o)
 .gnu.attributes
                0x000002fe       0x10 c:/program files/dspace rcphil 2016-a/compiler/qnx650_463/host/win32/x86/usr/bin/../lib/gcc/powerpc-unknown-nto-qnx6.5.0/4.6.3\libgcc.a(_addsub_sf.o)
 .gnu.attributes
                0x0000030e       0x10 c:/program files/dspace rcphil 2016-a/compiler/qnx650_463/host/win32/x86/usr/bin/../lib/gcc/powerpc-unknown-nto-qnx6.5.0/4.6.3\libgcc.a(_mul_sf.o)
 .gnu.attributes
                0x0000031e       0x10 c:/program files/dspace rcphil 2016-a/compiler/qnx650_463/host/win32/x86/usr/bin/../lib/gcc/powerpc-unknown-nto-qnx6.5.0/4.6.3\libgcc.a(_div_sf.o)
 .gnu.attributes
                0x0000032e       0x10 c:/program files/dspace rcphil 2016-a/compiler/qnx650_463/host/win32/x86/usr/bin/../lib/gcc/powerpc-unknown-nto-qnx6.5.0/4.6.3\libgcc.a(_compare_sf.o)
 .gnu.attributes
                0x0000033e       0x10 c:/program files/dspace rcphil 2016-a/compiler/qnx650_463/host/win32/x86/usr/bin/../lib/gcc/powerpc-unknown-nto-qnx6.5.0/4.6.3\libgcc.a(_eq_sf.o)
 .gnu.attributes
                0x0000034e       0x10 c:/program files/dspace rcphil 2016-a/compiler/qnx650_463/host/win32/x86/usr/bin/../lib/gcc/powerpc-unknown-nto-qnx6.5.0/4.6.3\libgcc.a(_ne_sf.o)
 .gnu.attributes
                0x0000035e       0x10 c:/program files/dspace rcphil 2016-a/compiler/qnx650_463/host/win32/x86/usr/bin/../lib/gcc/powerpc-unknown-nto-qnx6.5.0/4.6.3\libgcc.a(_gt_sf.o)
 .gnu.attributes
                0x0000036e       0x10 c:/program files/dspace rcphil 2016-a/compiler/qnx650_463/host/win32/x86/usr/bin/../lib/gcc/powerpc-unknown-nto-qnx6.5.0/4.6.3\libgcc.a(_ge_sf.o)
 .gnu.attributes
                0x0000037e       0x10 c:/program files/dspace rcphil 2016-a/compiler/qnx650_463/host/win32/x86/usr/bin/../lib/gcc/powerpc-unknown-nto-qnx6.5.0/4.6.3\libgcc.a(_lt_sf.o)
 .gnu.attributes
                0x0000038e       0x10 c:/program files/dspace rcphil 2016-a/compiler/qnx650_463/host/win32/x86/usr/bin/../lib/gcc/powerpc-unknown-nto-qnx6.5.0/4.6.3\libgcc.a(_le_sf.o)
 .gnu.attributes
                0x0000039e       0x10 c:/program files/dspace rcphil 2016-a/compiler/qnx650_463/host/win32/x86/usr/bin/../lib/gcc/powerpc-unknown-nto-qnx6.5.0/4.6.3\libgcc.a(_unord_sf.o)
 .gnu.attributes
                0x000003ae       0x10 c:/program files/dspace rcphil 2016-a/compiler/qnx650_463/host/win32/x86/usr/bin/../lib/gcc/powerpc-unknown-nto-qnx6.5.0/4.6.3\libgcc.a(_si_to_sf.o)
 .gnu.attributes
                0x000003be       0x10 c:/program files/dspace rcphil 2016-a/compiler/qnx650_463/host/win32/x86/usr/bin/../lib/gcc/powerpc-unknown-nto-qnx6.5.0/4.6.3\libgcc.a(_sf_to_si.o)
 .gnu.attributes
                0x000003ce       0x10 c:/program files/dspace rcphil 2016-a/compiler/qnx650_463/host/win32/x86/usr/bin/../lib/gcc/powerpc-unknown-nto-qnx6.5.0/4.6.3\libgcc.a(_negate_sf.o)
 .gnu.attributes
                0x000003de       0x10 c:/program files/dspace rcphil 2016-a/compiler/qnx650_463/host/win32/x86/usr/bin/../lib/gcc/powerpc-unknown-nto-qnx6.5.0/4.6.3\libgcc.a(_make_sf.o)
 .gnu.attributes
                0x000003ee       0x10 c:/program files/dspace rcphil 2016-a/compiler/qnx650_463/host/win32/x86/usr/bin/../lib/gcc/powerpc-unknown-nto-qnx6.5.0/4.6.3\libgcc.a(_sf_to_df.o)
 .gnu.attributes
                0x000003fe       0x10 c:/program files/dspace rcphil 2016-a/compiler/qnx650_463/host/win32/x86/usr/bin/../lib/gcc/powerpc-unknown-nto-qnx6.5.0/4.6.3\libgcc.a(_usi_to_sf.o)
 .gnu.attributes
                0x0000040e       0x10 c:/program files/dspace rcphil 2016-a/compiler/qnx650_463/host/win32/x86/usr/bin/../lib/gcc/powerpc-unknown-nto-qnx6.5.0/4.6.3\libgcc.a(_pack_df.o)
 .gnu.attributes
                0x0000041e       0x10 c:/program files/dspace rcphil 2016-a/compiler/qnx650_463/host/win32/x86/usr/bin/../lib/gcc/powerpc-unknown-nto-qnx6.5.0/4.6.3\libgcc.a(_addsub_df.o)
 .gnu.attributes
                0x0000042e       0x10 c:/program files/dspace rcphil 2016-a/compiler/qnx650_463/host/win32/x86/usr/bin/../lib/gcc/powerpc-unknown-nto-qnx6.5.0/4.6.3\libgcc.a(_mul_df.o)
 .gnu.attributes
                0x0000043e       0x10 c:/program files/dspace rcphil 2016-a/compiler/qnx650_463/host/win32/x86/usr/bin/../lib/gcc/powerpc-unknown-nto-qnx6.5.0/4.6.3\libgcc.a(_div_df.o)
 .gnu.attributes
                0x0000044e       0x10 c:/program files/dspace rcphil 2016-a/compiler/qnx650_463/host/win32/x86/usr/bin/../lib/gcc/powerpc-unknown-nto-qnx6.5.0/4.6.3\libgcc.a(_compare_df.o)
 .gnu.attributes
                0x0000045e       0x10 c:/program files/dspace rcphil 2016-a/compiler/qnx650_463/host/win32/x86/usr/bin/../lib/gcc/powerpc-unknown-nto-qnx6.5.0/4.6.3\libgcc.a(_eq_df.o)
 .gnu.attributes
                0x0000046e       0x10 c:/program files/dspace rcphil 2016-a/compiler/qnx650_463/host/win32/x86/usr/bin/../lib/gcc/powerpc-unknown-nto-qnx6.5.0/4.6.3\libgcc.a(_ne_df.o)
 .gnu.attributes
                0x0000047e       0x10 c:/program files/dspace rcphil 2016-a/compiler/qnx650_463/host/win32/x86/usr/bin/../lib/gcc/powerpc-unknown-nto-qnx6.5.0/4.6.3\libgcc.a(_gt_df.o)
 .gnu.attributes
                0x0000048e       0x10 c:/program files/dspace rcphil 2016-a/compiler/qnx650_463/host/win32/x86/usr/bin/../lib/gcc/powerpc-unknown-nto-qnx6.5.0/4.6.3\libgcc.a(_ge_df.o)
 .gnu.attributes
                0x0000049e       0x10 c:/program files/dspace rcphil 2016-a/compiler/qnx650_463/host/win32/x86/usr/bin/../lib/gcc/powerpc-unknown-nto-qnx6.5.0/4.6.3\libgcc.a(_lt_df.o)
 .gnu.attributes
                0x000004ae       0x10 c:/program files/dspace rcphil 2016-a/compiler/qnx650_463/host/win32/x86/usr/bin/../lib/gcc/powerpc-unknown-nto-qnx6.5.0/4.6.3\libgcc.a(_le_df.o)
 .gnu.attributes
                0x000004be       0x10 c:/program files/dspace rcphil 2016-a/compiler/qnx650_463/host/win32/x86/usr/bin/../lib/gcc/powerpc-unknown-nto-qnx6.5.0/4.6.3\libgcc.a(_unord_df.o)
 .gnu.attributes
                0x000004ce       0x10 c:/program files/dspace rcphil 2016-a/compiler/qnx650_463/host/win32/x86/usr/bin/../lib/gcc/powerpc-unknown-nto-qnx6.5.0/4.6.3\libgcc.a(_si_to_df.o)
 .gnu.attributes
                0x000004de       0x10 c:/program files/dspace rcphil 2016-a/compiler/qnx650_463/host/win32/x86/usr/bin/../lib/gcc/powerpc-unknown-nto-qnx6.5.0/4.6.3\libgcc.a(_df_to_si.o)
 .gnu.attributes
                0x000004ee       0x10 c:/program files/dspace rcphil 2016-a/compiler/qnx650_463/host/win32/x86/usr/bin/../lib/gcc/powerpc-unknown-nto-qnx6.5.0/4.6.3\libgcc.a(_negate_df.o)
 .gnu.attributes
                0x000004fe       0x10 c:/program files/dspace rcphil 2016-a/compiler/qnx650_463/host/win32/x86/usr/bin/../lib/gcc/powerpc-unknown-nto-qnx6.5.0/4.6.3\libgcc.a(_make_df.o)
 .gnu.attributes
                0x0000050e       0x10 c:/program files/dspace rcphil 2016-a/compiler/qnx650_463/host/win32/x86/usr/bin/../lib/gcc/powerpc-unknown-nto-qnx6.5.0/4.6.3\libgcc.a(_df_to_sf.o)
 .gnu.attributes
                0x0000051e       0x10 c:/program files/dspace rcphil 2016-a/compiler/qnx650_463/host/win32/x86/usr/bin/../lib/gcc/powerpc-unknown-nto-qnx6.5.0/4.6.3\libgcc.a(_usi_to_df.o)

/DISCARD/
 *(.note.GNU-stack)
 *(.gnu_debuglink)
OUTPUT(base.ppc elf32-powerpc)
